(dp0
I0
S''
p1
sI1
S'limited'
p2
sI2
S'raining'
p3
sI3
S'jadis'
p4
sI4
S'child'
p5
sI5
S'yellow'
p6
sI6
S'everybody'
p7
sI7
S'four'
p8
sI8
S'woods'
p9
sI9
S'sleep'
p10
sI10
S'asian'
p11
sI11
S"friend's"
p12
sI12
S'hanging'
p13
sI13
S'6pm'
p14
sI14
S'famished'
p15
sI15
S'appetite'
p16
sI16
S'oldest'
p17
sI17
S'hate'
p18
sI18
S'worked'
p19
sI19
S'consider'
p20
sI20
S'whose'
p21
sI21
S'4-star'
p22
sI22
S'buddy'
p23
sI23
S'linguini'
p24
sI24
S'paris'
p25
sI25
S"friends'"
p26
sI26
S'patsy'
p27
sI27
S'pancetta'
p28
sI28
S'bike'
p29
sI29
S'under'
p30
sI30
S'lord'
p31
sI31
S'sorry'
p32
sI32
S'gracious'
p33
sI33
S'worth'
p34
sI34
S'@'
p35
sI35
S'updated'
p36
sI36
S'ale'
p37
sI37
S'affair'
p38
sI38
S'flushing'
p39
sI39
S'deli'
p40
sI40
S'\xc2\xa0portions'
p41
sI41
S'desired'
p42
sI42
S'hilarious'
p43
sI43
S'lomo'
p44
sI44
S'smack'
p45
sI45
S'combos'
p46
sI46
S'every'
p47
sI47
S'jack'
p48
sI48
S'messy'
p49
sI49
S'saucy'
p50
sI50
S'low-key'
p51
sI51
S'bringing'
p52
sI52
S'sangrias'
p53
sI53
S'vast'
p54
sI54
S'soba'
p55
sI55
S'tickets'
p56
sI56
S'school'
p57
sI57
S'tonkotsu'
p58
sI58
S'baking'
p59
sI59
S'wooden'
p60
sI60
S'\xc2\xa0worth'
p61
sI61
S'cons:'
p62
sI62
S'venue'
p63
sI63
S'wednesday'
p64
sI64
S'000'
p65
sI65
S'correct'
p66
sI66
S'frozen'
p67
sI67
S'convenience'
p68
sI68
S'honor'
p69
sI69
S'rubirosa'
p70
sI70
S'smoky'
p71
sI71
S'\xc2\xa0here'
p72
sI72
S'heading'
p73
sI73
S'martinis'
p74
sI74
S'enjoy'
p75
sI75
S'carnivore'
p76
sI76
S'bill'
p77
sI77
S'specially'
p78
sI78
S'tired'
p79
sI79
S'consistent'
p80
sI80
S'almond'
p81
sI81
S'bacon'
p82
sI82
S'japanese'
p83
sI83
S'landmark'
p84
sI84
S'chef'
p85
sI85
S'elegant'
p86
sI86
S'second'
p87
sI87
S'street'
p88
sI88
S'7th'
p89
sI89
S'air'
p90
sI90
S'me:'
p91
sI91
S'even'
p92
sI92
S'bronte'
p93
sI93
S'expanded'
p94
sI94
S'pace'
p95
sI95
S'cha-an'
p96
sI96
S'saved'
p97
sI97
S'+'
p98
sI98
S'cooking'
p99
sI99
S'fingers'
p100
sI100
S'asia'
p101
sI101
S'\xc2\xa0most'
p102
sI102
S'lights'
p103
sI103
S'buvette'
p104
sI104
S'en'
p105
sI105
S'speedy'
p106
sI106
S'above'
p107
sI107
S'frank'
p108
sI108
S'new'
p109
sI109
S'tips'
p110
sI110
S'poorly'
p111
sI111
S'ever'
p112
sI112
S'told'
p113
sI113
S'textures'
p114
sI114
S'crunch'
p115
sI115
S'kicked'
p116
sI116
S'hero'
p117
sI117
S'curry'
p118
sI118
S'festive'
p119
sI119
S'pancakes'
p120
sI120
S"york's"
p121
sI121
S'never'
p122
sI122
S'meh'
p123
sI123
S'here'
p124
sI124
S'hundreds'
p125
sI125
S'met'
p126
sI126
S'punch'
p127
sI127
S'china'
p128
sI128
S'hand-pulled'
p129
sI129
S'bulgogi'
p130
sI130
S'path'
p131
sI131
S'100'
p132
sI132
S"aren't"
p133
sI133
S'mozzarella'
p134
sI134
S'celebration'
p135
sI135
S'dry'
p136
sI136
S'chaotic'
p137
sI137
S'kids'
p138
sI138
S'daughter'
p139
sI139
S'over-priced'
p140
sI140
S'swing'
p141
sI141
S"\xc2\xa0don't"
p142
sI142
S'lychee'
p143
sI143
S'items'
p144
sI144
S'leaves'
p145
sI145
S'changed'
p146
sI146
S'lombardis'
p147
sI147
S'unfriendly'
p148
sI148
S'kudos'
p149
sI149
S'credit'
p150
sI150
S"i'd"
p151
sI151
S'umami'
p152
sI152
S'\xc2\xa0despite'
p153
sI153
S'smoke'
p154
sI154
S"john's"
p155
sI155
S'\xc2\xa0go'
p156
sI156
S"i'm"
p157
sI157
S'theres'
p158
sI158
S'changes'
p159
sI159
S'ventured'
p160
sI160
S'golden'
p161
sI161
S'fantastic'
p162
sI162
S'attracted'
p163
sI163
S'slices'
p164
sI164
S'explained'
p165
sI165
S'forced'
p166
sI166
S'charred'
p167
sI167
S'highly'
p168
sI168
S'brought'
p169
sI169
S'patience'
p170
sI170
S'pound'
p171
sI171
S'dumpling'
p172
sI172
S'$35'
p173
sI173
S'glance'
p174
sI174
S'total'
p175
sI175
S'meaty'
p176
sI176
S'\xc2\xa0my'
p177
sI177
S'\xc2\xa0sometimes'
p178
sI178
S'charge'
p179
sI179
S'spoke'
p180
sI180
S'would'
p181
sI181
S'double'
p182
sI182
S'nine'
p183
sI183
S'watering'
p184
sI184
S'truffles'
p185
sI185
S'negative'
p186
sI186
S'cali'
p187
sI187
S'music'
p188
sI188
S'therefore'
p189
sI189
S'recommend'
p190
sI190
S'type'
p191
sI191
S'until'
p192
sI192
S'attractive'
p193
sI193
S'hu'
p194
sI194
S'holy'
p195
sI195
S'evening'
p196
sI196
S'successful'
p197
sI197
S'brings'
p198
sI198
S'dressing'
p199
sI199
S'haha'
p200
sI200
S'\xc2\xa0what'
p201
sI201
S'"i'
p202
sI202
S'99'
p203
sI203
S'glass'
p204
sI204
S'festival'
p205
sI205
S'warm'
p206
sI206
S'pecan'
p207
sI207
S'former'
p208
sI208
S'excellent'
p209
sI209
S'cured'
p210
sI210
S'hole'
p211
sI211
S'hold'
p212
sI212
S'95'
p213
sI213
S'authentically'
p214
sI214
S'must'
p215
sI215
S'me'
p216
sI216
S'decoration'
p217
sI217
S'pride'
p218
sI218
S'word'
p219
sI219
S'room'
p220
sI220
S'cheapest'
p221
sI221
S'stairs'
p222
sI222
S'setup'
p223
sI223
S'work'
p224
sI224
S'mi'
p225
sI225
S"quinn's"
p226
sI226
S'movies'
p227
sI227
S'mono'
p228
sI228
S'mp'
p229
sI229
S'mr'
p230
sI230
S'elbow'
p231
sI231
S'upscale'
p232
sI232
S'my'
p233
sI233
S'example'
p234
sI234
S'addictive'
p235
sI235
S'alphabet'
p236
sI236
S'vodka'
p237
sI237
S'foodie'
p238
sI238
S'bell'
p239
sI239
S'give'
p240
sI240
S'snobby'
p241
sI241
S'organized'
p242
sI242
S'\xc2\xa0also'
p243
sI243
S'honey'
p244
sI244
S'foods'
p245
sI245
S'veggies'
p246
sI246
S'want'
p247
sI247
S'cantonese'
p248
sI248
S'appearance'
p249
sI249
S'\xc2\xa0other'
p250
sI250
S'keep'
p251
sI251
S'\xc2\xa0try'
p252
sI252
S'absolute'
p253
sI253
S"roberta's"
p254
sI254
S'end'
p255
sI255
S'turn'
p256
sI256
S'provide'
p257
sI257
S'travel'
p258
sI258
S'song'
p259
sI259
S'taverna'
p260
sI260
S'frites'
p261
sI261
S'confit'
p262
sI262
S'machine'
p263
sI263
S'how'
p264
sI264
S'hot'
p265
sI265
S'gato'
p266
sI266
S'penne'
p267
sI267
S'hop'
p268
sI268
S'answer'
p269
sI269
S'disappoint'
p270
sI270
S'ordinary'
p271
sI271
S'beach'
p272
sI272
S'applewood'
p273
sI273
S'pizza'
p274
sI274
S'badly'
p275
sI275
S'\xc2\xa0overall'
p276
sI276
S'description'
p277
sI277
S'haven'
p278
sI278
S'funny'
p279
sI279
S'bday'
p280
sI280
S'\xc2\xa0super'
p281
sI281
S'after'
p282
sI282
S'food-'
p283
sI283
S'communal'
p284
sI284
S'\xc2\xa0only'
p285
sI285
S'wrong'
p286
sI286
S'discovering'
p287
sI287
S'balthazar'
p288
sI288
S'salsa'
p289
sI289
S'dumbo'
p290
sI290
S'food:'
p291
sI291
S'disagree'
p292
sI292
S'types'
p293
sI293
S'las'
p294
sI294
S'purchase'
p295
sI295
S'chilled'
p296
sI296
S'danny'
p297
sI297
S'attempt'
p298
sI298
S'third'
p299
sI299
S'specialize'
p300
sI300
S'croissant'
p301
sI301
S'appreciate'
p302
sI302
S'lost'
p303
sI303
S'greet'
p304
sI304
S'childhood'
p305
sI305
S'complaining'
p306
sI306
S'greek'
p307
sI307
S'green'
p308
sI308
S'waitress'
p309
sI309
S'suggest'
p310
sI310
S'worst'
p311
sI311
S'\xc2\xa0awesome'
p312
sI312
S'harlem'
p313
sI313
S'oysters'
p314
sI314
S'order'
p315
sI315
S'leisurely'
p316
sI316
S'wine'
p317
sI317
S'executed'
p318
sI318
S'afterwards'
p319
sI319
S'office'
p320
sI320
S'enter'
p321
sI321
S'welcomed'
p322
sI322
S'muffin'
p323
sI323
S'over'
p324
sI324
S'fall'
p325
sI325
S'encounter'
p326
sI326
S'satisfied'
p327
sI327
S'murray'
p328
sI328
S'\xc2\xa0our'
p329
sI329
S'london'
p330
sI330
S'oven'
p331
sI331
S'innovative'
p332
sI332
S'japan'
p333
sI333
S'\xc2\xa0well'
p334
sI334
S'andrea'
p335
sI335
S'before'
p336
sI336
S'saigon'
p337
sI337
S'fit'
p338
sI338
S'7:30pm'
p339
sI339
S'somewhere'
p340
sI340
S'plantains'
p341
sI341
S'fix'
p342
sI342
S'avocado'
p343
sI343
S'expectations'
p344
sI344
S'reasons:'
p345
sI345
S'writing'
p346
sI346
S'better'
p347
sI347
S'pricier'
p348
sI348
S'drawback'
p349
sI349
S'understated'
p350
sI350
S'blueberry'
p351
sI351
S'savory'
p352
sI352
S'weeks'
p353
sI353
S'milkshake'
p354
sI354
S'easier'
p355
sI355
S"gee's"
p356
sI356
S'belly'
p357
sI357
S'then'
p358
sI358
S'them'
p359
sI359
S'"new'
p360
sI360
S'tourist'
p361
sI361
S'combination'
p362
sI362
S'similar'
p363
sI363
S'thee'
p364
sI364
S'safe'
p365
sI365
S'30th'
p366
sI366
S'\xc2\xa0however'
p367
sI367
S'break'
p368
sI368
S'band'
p369
sI369
S'roommate'
p370
sI370
S'walk-in'
p371
sI371
S'they'
p372
sI372
S'indulge'
p373
sI373
S'\xc2\xa0some'
p374
sI374
S'braised'
p375
sI375
S'one'
p376
sI376
S'banh'
p377
sI377
S'bank'
p378
sI378
S'bread'
p379
sI379
S'barbeque'
p380
sI380
S'family-style'
p381
sI381
S'meat'
p382
sI382
S'regularly'
p383
sI383
S'potatoes'
p384
sI384
S'reasonably'
p385
sI385
S'crunchy'
p386
sI386
S'l'
p387
sI387
S'rocks'
p388
sI388
S'dingy'
p389
sI389
S'filling'
p390
sI390
S'panini'
p391
sI391
S'reasonable'
p392
sI392
S'each'
p393
sI393
S'addicted'
p394
sI394
S'went'
p395
sI395
S'higher'
p396
sI396
S'rosemary'
p397
sI397
S'meal'
p398
sI398
S'bone'
p399
sI399
S'mean'
p400
sI400
S'caf\xc3\xa9'
p401
sI401
S'whim'
p402
sI402
S'financial'
p403
sI403
S'meets'
p404
sI404
S'\xc2\xa0for'
p405
sI405
S'waffle'
p406
sI406
S'celebrating'
p407
sI407
S'\xc2\xa0now'
p408
sI408
S"we'd"
p409
sI409
S'forgot'
p410
sI410
S'forgione'
p411
sI411
S'ward'
p412
sI412
S'saturday'
p413
sI413
S'hospitable'
p414
sI414
S'shut'
p415
sI415
S'is:'
p416
sI416
S'rw'
p417
sI417
S'velvet'
p418
sI418
S'network'
p419
sI419
S'driving'
p420
sI420
S'god'
p421
sI421
S'ha'
p422
sI422
S'hooked'
p423
sI423
S'vibes'
p424
sI424
S'celiac'
p425
sI425
S'george'
p426
sI426
S'strangers'
p427
sI427
S'laid'
p428
sI428
S'nope'
p429
sI429
S'nye'
p430
sI430
S'nite'
p431
sI431
S'heavenly'
p432
sI432
S'got'
p433
sI433
S'newly'
p434
sI434
S'grease'
p435
sI435
S'turning'
p436
sI436
S'cutest'
p437
sI437
S"you're"
p438
sI438
S'tops'
p439
sI439
S'fave'
p440
sI440
S'little'
p441
sI441
S'free'
p442
sI442
S'standard'
p443
sI443
S'delightfully'
p444
sI444
S'fixe'
p445
sI445
S'wanted'
p446
sI446
S'storm'
p447
sI447
S'nondescript'
p448
sI448
S'greasy'
p449
sI449
S'uva'
p450
sI450
S'enormous'
p451
sI451
S'ate'
p452
sI452
S'\xc2\xa0from'
p453
sI453
S'suckling'
p454
sI454
S'created'
p455
sI455
S'starts'
p456
sI456
S'inexpensive'
p457
sI457
S'days'
p458
sI458
S'pang'
p459
sI459
S'"this'
p460
sI460
S'takeout'
p461
sI461
S'flawless'
p462
sI462
S'+1'
p463
sI463
S'heck'
p464
sI464
S'\xc2\xa0lots'
p465
sI465
S'signature'
p466
sI466
S'moving'
p467
sI467
S'9pm'
p468
sI468
S'loud'
p469
sI469
S'caught'
p470
sI470
S'chopped'
p471
sI471
S'already'
p472
sI472
S'features'
p473
sI473
S'champs'
p474
sI474
S'grade'
p475
sI475
S'veggie'
p476
sI476
S'hearing'
p477
sI477
S'hook'
p478
sI478
S'featured'
p479
sI479
S'floors'
p480
sI480
S'downside'
p481
sI481
S'another'
p482
sI482
S'\xc2\xa0tried'
p483
sI483
S'sober'
p484
sI484
S'thick'
p485
sI485
S'plastic'
p486
sI486
S'\xc2\xa0too'
p487
sI487
S'hood'
p488
sI488
S'sisig'
p489
sI489
S'rated'
p490
sI490
S'service'
p491
sI491
S'spinach'
p492
sI492
S'guinness'
p493
sI493
S'letting'
p494
sI494
S'top'
p495
sI495
S"tom's"
p496
sI496
S'girls'
p497
sI497
S'carry'
p498
sI498
S'heights'
p499
sI499
S'plentiful'
p500
sI500
S'needed'
p501
sI501
S'ton'
p502
sI502
S'too'
p503
sI503
S'tom'
p504
sI504
S'tangy'
p505
sI505
S'airy'
p506
sI506
S'hundred'
p507
sI507
S'legs'
p508
sI508
S'bitter'
p509
sI509
S'dogs'
p510
sI510
S'listen'
p511
sI511
S'urban'
p512
sI512
S'ceiling'
p513
sI513
S'hangout'
p514
sI514
S'happily'
p515
sI515
S'snooty'
p516
sI516
S'2am'
p517
sI517
S'serve'
p518
sI518
S'took'
p519
sI519
S'\xc2\xa0first'
p520
sI520
S'paprika'
p521
sI521
S'hells'
p522
sI522
S'somewhat'
p523
sI523
S'wasted'
p524
sI524
S'shortly'
p525
sI525
S'crawl'
p526
sI526
S'spreads'
p527
sI527
S'distance'
p528
sI528
S'trek'
p529
sI529
S'brulee'
p530
sI530
S'smokey'
p531
sI531
S'showed'
p532
sI532
S'surrounding'
p533
sI533
S'tavern'
p534
sI534
S'hike'
p535
sI535
S'tree'
p536
sI536
S'crave'
p537
sI537
S'seated'
p538
sI538
S'final'
p539
sI539
S'preparation'
p540
sI540
S'matter'
p541
sI541
S'fabulous'
p542
sI542
S'silly'
p543
sI543
S'speaking'
p544
sI544
S'iron'
p545
sI545
S'spoiled'
p546
sI546
S'k'
p547
sI547
S'joy'
p548
sI548
S'feeling'
p549
sI549
S'perilla'
p550
sI550
S'minus'
p551
sI551
S'bridge'
p552
sI552
S'fashion'
p553
sI553
S'ev'
p554
sI554
S'afton'
p555
sI555
S'ran'
p556
sI556
S'boston'
p557
sI557
S'modern'
p558
sI558
S'flavorful'
p559
sI559
S'mine'
p560
sI560
S'ginger'
p561
sI561
S'bouncer'
p562
sI562
S'talking'
p563
sI563
S'lunchtime'
p564
sI564
S'seen'
p565
sI565
S'seem'
p566
sI566
S'mins'
p567
sI567
S'mint'
p568
sI568
S'tells'
p569
sI569
S'charcuterie'
p570
sI570
S'relatively'
p571
sI571
S'8:30pm'
p572
sI572
S'tho'
p573
sI573
S'quieter'
p574
sI574
S'genuine'
p575
sI575
S'unimpressed'
p576
sI576
S'source'
p577
sI577
S'thoroughly'
p578
sI578
S'neck'
p579
sI579
S'-'
p580
sI580
S'snow'
p581
sI581
S'situated'
p582
sI582
S'sound'
p583
sI583
S'recommended'
p584
sI584
S'client'
p585
sI585
S'doors'
p586
sI586
S'snob'
p587
sI587
S"ippudo's"
p588
sI588
S"adrienne's"
p589
sI589
S'greatest'
p590
sI590
S'blue'
p591
sI591
S'gravy'
p592
sI592
S'nobody'
p593
sI593
S'though'
p594
sI594
S'thrilled'
p595
sI595
S'consistency'
p596
sI596
S'mashed'
p597
sI597
S'\xc2\xa0a'
p598
sI598
S'mario'
p599
sI599
S'regular'
p600
sI600
S'mouth'
p601
sI601
S'addict'
p602
sI602
S'plenty'
p603
sI603
S'hearts'
p604
sI604
S'\xc2\xa0i'
p605
sI605
S'gitane'
p606
sI606
S'watercress'
p607
sI607
S'nachos'
p608
sI608
S'sub'
p609
sI609
S'late-night'
p610
sI610
S'don'
p611
sI611
S'treats'
p612
sI612
S'dom'
p613
sI613
S'soups'
p614
sI614
S'grass'
p615
sI615
S'm'
p616
sI616
S'dog'
p617
sI617
S'definitely'
p618
sI618
S'aunt'
p619
sI619
S'pineapple'
p620
sI620
S'chris'
p621
sI621
S'dos'
p622
sI622
S'entertaining'
p623
sI623
S'zutto'
p624
sI624
S'scotch'
p625
sI625
S'take-out'
p626
sI626
S'came'
p627
sI627
S'reserve'
p628
sI628
S'saying'
p629
sI629
S'beaten'
p630
sI630
S'bomb'
p631
sI631
S'overpriced'
p632
sI632
S'hunger'
p633
sI633
S'visitor'
p634
sI634
S'tequila'
p635
sI635
S'random'
p636
sI636
S'brief'
p637
sI637
S'prix'
p638
sI638
S'fennel'
p639
sI639
S'showing'
p640
sI640
S'fab'
p641
sI641
S'stepping'
p642
sI642
S'earth'
p643
sI643
S'tempted'
p644
sI644
S'enjoyed'
p645
sI645
S"restaurant's"
p646
sI646
S'toast'
p647
sI647
S'orleans'
p648
sI648
S'touches'
p649
sI649
S'busy'
p650
sI650
S'layout'
p651
sI651
S'quoted'
p652
sI652
S'quaint'
p653
sI653
S'menu'
p654
sI654
S'weekends'
p655
sI655
S'hrs'
p656
sI656
S'sugar'
p657
sI657
S'theme'
p658
sI658
S'pairing'
p659
sI659
S'rich'
p660
sI660
S'gods'
p661
sI661
S'folks'
p662
sI662
S'chipotle'
p663
sI663
S'rice'
p664
sI664
S'maialino'
p665
sI665
S'stores'
p666
sI666
S'personality'
p667
sI667
S'wearing'
p668
sI668
S'do'
p669
sI669
S'cappuccino'
p670
sI670
S'dj'
p671
sI671
S'colorful'
p672
sI672
S'di'
p673
sI673
S'catered'
p674
sI674
S'de'
p675
sI675
S'stop'
p676
sI676
S'$16'
p677
sI677
S'preferred'
p678
sI678
S'appetizer'
p679
sI679
S'petit'
p680
sI680
S'$17'
p681
sI681
S'watermelon'
p682
sI682
S"food's"
p683
sI683
S'despite'
p684
sI684
S'report'
p685
sI685
S'15'
p686
sI686
S'nasty'
p687
sI687
S'quarters'
p688
sI688
S'flamenco'
p689
sI689
S'chutney'
p690
sI690
S'sandy'
p691
sI691
S'14'
p692
sI692
S'\xc2\xa0will'
p693
sI693
S'hall'
p694
sI694
S'runs'
p695
sI695
S'overbearing'
p696
sI696
S'bar'
p697
sI697
S'17'
p698
sI698
S'greens'
p699
sI699
S'pressed'
p700
sI700
S'nicely'
p701
sI701
S'officially'
p702
sI702
S'congee'
p703
sI703
S'16'
p704
sI704
S'dipping'
p705
sI705
S'pretzel'
p706
sI706
S'bay'
p707
sI707
S'greene'
p708
sI708
S'twice'
p709
sI709
S'bad'
p710
sI710
S'soupy'
p711
sI711
S"'n'"
p712
sI712
S'shots'
p713
sI713
S'yelping'
p714
sI714
S'grilled'
p715
sI715
S'bao'
p716
sI716
S'aesthetic'
p717
sI717
S'steak'
p718
sI718
S'steal'
p719
sI719
S'steam'
p720
sI720
S'90'
p721
sI721
S'quintessential'
p722
sI722
S'headed'
p723
sI723
S'blew'
p724
sI724
S'disaster'
p725
sI725
S'fair'
p726
sI726
S'w/'
p727
sI727
S'fluffy'
p728
sI728
S'lemonade'
p729
sI729
S'pile'
p730
sI730
S'resist'
p731
sI731
S'opposite'
p732
sI732
S'depends'
p733
sI733
S'decided'
p734
sI734
S'bed'
p735
sI735
S'horrendous'
p736
sI736
S'fail'
p737
sI737
S'brasserie'
p738
sI738
S'noodles'
p739
sI739
S'goulash'
p740
sI740
S'smoothies'
p741
sI741
S'best'
p742
sI742
S'soba-ya'
p743
sI743
S'brazil'
p744
sI744
S'00'
p745
sI745
S'said'
p746
sI746
S'capacity'
p747
sI747
S'michelin'
p748
sI748
S'lots'
p749
sI749
S'away'
p750
sI750
S'rings'
p751
sI751
S'shaved'
p752
sI752
S'orgasmic'
p753
sI753
S'"oh'
p754
sI754
S'soco'
p755
sI755
S"there's"
p756
sI756
S'finger'
p757
sI757
S'props'
p758
sI758
S'yogurt'
p759
sI759
S'drawn'
p760
sI760
S'sorts'
p761
sI761
S'\xc2\xa0she'
p762
sI762
S'approach'
p763
sI763
S'side'
p764
sI764
S'gems'
p765
sI765
S'we'
p766
sI766
S'men'
p767
sI767
S'omg'
p768
sI768
S'relative'
p769
sI769
S'bookmarked'
p770
sI770
S'rolled'
p771
sI771
S'smelled'
p772
sI772
S'lover'
p773
sI773
S'lupa'
p774
sI774
S'however'
p775
sI775
S'$40'
p776
sI776
S'boss'
p777
sI777
S'halloween'
p778
sI778
S'fette'
p779
sI779
S'wtf'
p780
sI780
S'momofuku'
p781
sI781
S'heads'
p782
sI782
S'cousin'
p783
sI783
S'picking'
p784
sI784
S"wafa's"
p785
sI785
S"\xc2\xa0i've"
p786
sI786
S'suggested'
p787
sI787
S'received'
p788
sI788
S'essentially'
p789
sI789
S'accident'
p790
sI790
S'cow'
p791
sI791
S'bachelorette'
p792
sI792
S'country'
p793
sI793
S'ill'
p794
sI794
S'sparkling'
p795
sI795
S"\xc2\xa0it's"
p796
sI796
S'against'
p797
sI797
S'amazing'
p798
sI798
S'hummus'
p799
sI799
S'cob'
p800
sI800
S'games'
p801
sI801
S'planned'
p802
sI802
S'cherry'
p803
sI803
S'pita'
p804
sI804
S'pate'
p805
sI805
S'lunches'
p806
sI806
S'freshest'
p807
sI807
S'asked'
p808
sI808
S'con'
p809
sI809
S'stock'
p810
sI810
S'prospect'
p811
sI811
S'bored'
p812
sI812
S'tough'
p813
sI813
S'appeared'
p814
sI814
S'character'
p815
sI815
S'here:'
p816
sI816
S'steaks'
p817
sI817
S'groupon'
p818
sI818
S'2nd'
p819
sI819
S'offerings'
p820
sI820
S'hands-down'
p821
sI821
S'tons'
p822
sI822
S'massive'
p823
sI823
S'loaded'
p824
sI824
S'refill'
p825
sI825
S'trust'
p826
sI826
S'chino'
p827
sI827
S'san'
p828
sI828
S'bathroom'
p829
sI829
S'beef'
p830
sI830
S'basis'
p831
sI831
S'union'
p832
sI832
S'fri'
p833
sI833
S'10-15'
p834
sI834
S'9th'
p835
sI835
S'three'
p836
sI836
S'been'
p837
sI837
S'.'
p838
sI838
S'beer'
p839
sI839
S'much'
p840
sI840
S'beet'
p841
sI841
S'gyoza'
p842
sI842
S'interest'
p843
sI843
S'basic'
p844
sI844
S'expected'
p845
sI845
S'fry'
p846
sI846
S'lovely'
p847
sI847
S'warmth'
p848
sI848
S'gladly'
p849
sI849
S'threw'
p850
sI850
S'website'
p851
sI851
S'all-time'
p852
sI852
S'life'
p853
sI853
S'bolognese'
p854
sI854
S'families'
p855
sI855
S'beloved'
p856
sI856
S'mushroom'
p857
sI857
S'eastern'
p858
sI858
S'americanized'
p859
sI859
S'sooooo'
p860
sI860
S'joined'
p861
sI861
S'craft'
p862
sI862
S'personally'
p863
sI863
S'catch'
p864
sI864
S'chili'
p865
sI865
S'lousy'
p866
sI866
S'spin'
p867
sI867
S'bridal'
p868
sI868
S'chill'
p869
sI869
S'exception'
p870
sI870
S'has'
p871
sI871
S'sounded'
p872
sI872
S'hole-in-the-wall'
p873
sI873
S'tastes'
p874
sI874
S'n'
p875
sI875
S'ugly'
p876
sI876
S'near'
p877
sI877
S'melted'
p878
sI878
S'neat'
p879
sI879
S'\xc2\xa0make'
p880
sI880
S'stopping'
p881
sI881
S'balance'
p882
sI882
S'employees'
p883
sI883
S'mistake'
p884
sI884
S'seven'
p885
sI885
S'cons'
p886
sI886
S'barbuto'
p887
sI887
S'played'
p888
sI888
S'dumplings'
p889
sI889
S'pizzerias'
p890
sI890
S'is'
p891
sI891
S'sushi'
p892
sI892
S'it'
p893
sI893
S'morini'
p894
sI894
S'speakeasy'
p895
sI895
S'shame'
p896
sI896
S'cant'
p897
sI897
S'im'
p898
sI898
S'il'
p899
sI899
S'exterior'
p900
sI900
S'in'
p901
sI901
S'vendor'
p902
sI902
S'seattle'
p903
sI903
S'sells'
p904
sI904
S'if'
p905
sI905
S'grown'
p906
sI906
S'hong'
p907
sI907
S'bottles'
p908
sI908
S'portobello'
p909
sI909
S'things'
p910
sI910
S'make'
p911
sI911
S'windsor'
p912
sI912
S'locally'
p913
sI913
S'complex'
p914
sI914
S'patient'
p915
sI915
S'split'
p916
sI916
S'unfortunate'
p917
sI917
S'vegetable'
p918
sI918
S'plates'
p919
sI919
S'several'
p920
sI920
S'lacks'
p921
sI921
S'toasted'
p922
sI922
S'european'
p923
sI923
S'\xc2\xa0not'
p924
sI924
S'fairly'
p925
sI925
S'boiled'
p926
sI926
S'papaya'
p927
sI927
S'fuss'
p928
sI928
S'ceilings'
p929
sI929
S"should've"
p930
sI930
S'social'
p931
sI931
S'hang'
p932
sI932
S'rain'
p933
sI933
S'greeted'
p934
sI934
S'delight'
p935
sI935
S'superior'
p936
sI936
S'garlic'
p937
sI937
S'scale'
p938
sI938
S'\xc2\xa0finally'
p939
sI939
S'supper'
p940
sI940
S'tuna'
p941
sI941
S'insisted'
p942
sI942
S'opportunity'
p943
sI943
S'aka'
p944
sI944
S'thoughts'
p945
sI945
S'kid'
p946
sI946
S'butter'
p947
sI947
S'\xc2\xa0especially'
p948
sI948
S'hearth'
p949
sI949
S"someone's"
p950
sI950
S'kept'
p951
sI951
S'great-'
p952
sI952
S'hopping'
p953
sI953
S"mother's"
p954
sI954
S'settled'
p955
sI955
S'humble'
p956
sI956
S'boxes'
p957
sI957
S'carnitas'
p958
sI958
S'udon'
p959
sI959
S'burgers'
p960
sI960
S'hearty'
p961
sI961
S'does'
p962
sI962
S'mother'
p963
sI963
S'claims'
p964
sI964
S'the'
p965
sI965
S'smoked'
p966
sI966
S'corporate'
p967
sI967
S'left'
p968
sI968
S'seasonal'
p969
sI969
S'endless'
p970
sI970
S'kale'
p971
sI971
S'just'
p972
sI972
S'yea'
p973
sI973
S'photo'
p974
sI974
S'kinks'
p975
sI975
S'saraghina'
p976
sI976
S'risotteria'
p977
sI977
S'thanks'
p978
sI978
S"frankie's"
p979
sI979
S'followed'
p980
sI980
S'yes'
p981
sI981
S'october'
p982
sI982
S'bibimbap'
p983
sI983
S'yet'
p984
sI984
S'patatas'
p985
sI985
S'previous'
p986
sI986
S'assorted'
p987
sI987
S'note'
p988
sI988
S'ham'
p989
sI989
S'han'
p990
sI990
S'out-of-town'
p991
sI991
S'atmosphere:'
p992
sI992
S'had'
p993
sI993
S'collard'
p994
sI994
S'spread'
p995
sI995
S'board'
p996
sI996
S'easy'
p997
sI997
S'plans'
p998
sI998
S'east'
p999
sI999
S'gave'
p1000
sI1000
S'desire'
p1001
sI1001
S'thankfully'
p1002
sI1002
S'appreciated'
p1003
sI1003
S'knock'
p1004
sI1004
S'\xc2\xa0at'
p1005
sI1005
S'mayo'
p1006
sI1006
S'possible'
p1007
sI1007
S'\xc2\xa0as'
p1008
sI1008
S'peaches'
p1009
sI1009
S'possibly'
p1010
sI1010
S'fusion'
p1011
sI1011
S'\xc2\xa0an'
p1012
sI1012
S'3pm'
p1013
sI1013
S'background'
p1014
sI1014
S'consisted'
p1015
sI1015
S'judge'
p1016
sI1016
S'margherita'
p1017
sI1017
S'unique'
p1018
sI1018
S'burnt'
p1019
sI1019
S'12:30'
p1020
sI1020
S'dreams'
p1021
sI1021
S'apart'
p1022
sI1022
S'shoulder'
p1023
sI1023
S'sliced'
p1024
sI1024
S'gift'
p1025
sI1025
S'bobby'
p1026
sI1026
S'hunt'
p1027
sI1027
S'50'
p1028
sI1028
S'specific'
p1029
sI1029
S'viet'
p1030
sI1030
S'\xc2\xa0still'
p1031
sI1031
S'steps'
p1032
sI1032
S'overrated'
p1033
sI1033
S'night'
p1034
sI1034
S'hung'
p1035
sI1035
S'shawarma'
p1036
sI1036
S'toros'
p1037
sI1037
S'towards'
p1038
sI1038
S'meats'
p1039
sI1039
S'jean'
p1040
sI1040
S'right'
p1041
sI1041
S'old'
p1042
sI1042
S'smorgasburg'
p1043
sI1043
S'deal'
p1044
sI1044
S'people'
p1045
sI1045
S'crown'
p1046
sI1046
S'somehow'
p1047
sI1047
S'dead'
p1048
sI1048
S'standing'
p1049
sI1049
S'born'
p1050
sI1050
S'gym'
p1051
sI1051
S'unexpectedly'
p1052
sI1052
S'escape'
p1053
sI1053
S'dear'
p1054
sI1054
S'pain'
p1055
sI1055
S"sister's"
p1056
sI1056
S'confusing'
p1057
sI1057
S'a-ok'
p1058
sI1058
S'dense'
p1059
sI1059
S'resto'
p1060
sI1060
S'for'
p1061
sI1061
S'bottom'
p1062
sI1062
S'carts'
p1063
sI1063
S'phenomenal'
p1064
sI1064
S'ear'
p1065
sI1065
S'l&b'
p1066
sI1066
S'connecticut'
p1067
sI1067
S'ice'
p1068
sI1068
S'creative'
p1069
sI1069
S'everything'
p1070
sI1070
S'asking'
p1071
sI1071
S'plantain'
p1072
sI1072
S'adorable'
p1073
sI1073
S'christmas'
p1074
sI1074
S'\xc2\xa0just'
p1075
sI1075
S'bisque'
p1076
sI1076
S'ahhh'
p1077
sI1077
S'specifically'
p1078
sI1078
S'shakes'
p1079
sI1079
S'tartar'
p1080
sI1080
S'vesta'
p1081
sI1081
S'energy'
p1082
sI1082
S"ol'"
p1083
sI1083
S'corn'
p1084
sI1084
S'serbian'
p1085
sI1085
S'\xc2\xa0always'
p1086
sI1086
S'paid'
p1087
sI1087
S'memorable'
p1088
sI1088
S'post'
p1089
sI1089
S'super'
p1090
sI1090
S'bahn'
p1091
sI1091
S'khao'
p1092
sI1092
S'breaded'
p1093
sI1093
S'diner'
p1094
sI1094
S'filipino'
p1095
sI1095
S'boiling'
p1096
sI1096
S'theirs'
p1097
sI1097
S'ribs'
p1098
sI1098
S'months'
p1099
sI1099
S'v'
p1100
sI1100
S'\xc2\xa0we'
p1101
sI1101
S'costs'
p1102
sI1102
S'sizzling'
p1103
sI1103
S'dinner'
p1104
sI1104
S'dined'
p1105
sI1105
S'plus'
p1106
sI1106
S'afternoon'
p1107
sI1107
S'islands'
p1108
sI1108
S'lacked'
p1109
sI1109
S'\xc2\xa0pizza'
p1110
sI1110
S'octopus'
p1111
sI1111
S"\xc2\xa0can't"
p1112
sI1112
S'flatbread'
p1113
sI1113
S'ramblas'
p1114
sI1114
S'raised'
p1115
sI1115
S'whats'
p1116
sI1116
S'rye'
p1117
sI1117
S'tastier'
p1118
sI1118
S'ahh'
p1119
sI1119
S'married'
p1120
sI1120
S'delighted'
p1121
sI1121
S'soo'
p1122
sI1122
S'son'
p1123
sI1123
S'down'
p1124
sI1124
S'd'
p1125
sI1125
S'\xc2\xa0its'
p1126
sI1126
S'wrap'
p1127
sI1127
S'refined'
p1128
sI1128
S'cafeteria'
p1129
sI1129
S'stumble'
p1130
sI1130
S'saturdays'
p1131
sI1131
S'food;'
p1132
sI1132
S'existed'
p1133
sI1133
S'why:'
p1134
sI1134
S'crowd'
p1135
sI1135
S'waits'
p1136
sI1136
S'amazingly'
p1137
sI1137
S'support'
p1138
sI1138
S'constantly'
p1139
sI1139
S'class'
p1140
sI1140
S'stuck'
p1141
sI1141
S'joseph'
p1142
sI1142
S'way'
p1143
sI1143
S'refills'
p1144
sI1144
S'jane'
p1145
sI1145
S'call'
p1146
sI1146
S'unpretentious'
p1147
sI1147
S'was'
p1148
sI1148
S'happy'
p1149
sI1149
S'fork'
p1150
sI1150
S'head'
p1151
sI1151
S'medium'
p1152
sI1152
S'battery'
p1153
sI1153
S'offering'
p1154
sI1154
S'offer'
p1155
sI1155
S'attempted'
p1156
sI1156
S'becoming'
p1157
sI1157
S'6'
p1158
sI1158
S'forever'
p1159
sI1159
S'arepas'
p1160
sI1160
S'marinara'
p1161
sI1161
S'heat'
p1162
sI1162
S'verde'
p1163
sI1163
S'hear'
p1164
sI1164
S'justify'
p1165
sI1165
S'platters'
p1166
sI1166
S'true'
p1167
sI1167
S'fort'
p1168
sI1168
S'barrio'
p1169
sI1169
S'portions'
p1170
sI1170
S'beets'
p1171
sI1171
S'anella'
p1172
sI1172
S'inside'
p1173
sI1173
S'fills'
p1174
sI1174
S'bargain'
p1175
sI1175
S'hmm'
p1176
sI1176
S'tell'
p1177
sI1177
S'bowery'
p1178
sI1178
S'whiskey'
p1179
sI1179
S'marmalade'
p1180
sI1180
S'complaint'
p1181
sI1181
S'gyro'
p1182
sI1182
S'escargot'
p1183
sI1183
S'average'
p1184
sI1184
S'moly'
p1185
sI1185
S'trio'
p1186
sI1186
S'rotisserie'
p1187
sI1187
S'sticks'
p1188
sI1188
S'screaming'
p1189
sI1189
S'up'
p1190
sI1190
S'peruvian'
p1191
sI1191
S'upset'
p1192
sI1192
S'lanterna'
p1193
sI1193
S'drive'
p1194
sI1194
S'trendy'
p1195
sI1195
S'sometime'
p1196
sI1196
S'exist'
p1197
sI1197
S'promised'
p1198
sI1198
S'fashioned'
p1199
sI1199
S'candle'
p1200
sI1200
S'ofrenda'
p1201
sI1201
S'sprouts'
p1202
sI1202
S'awhile'
p1203
sI1203
S'annoying'
p1204
sI1204
S'check'
p1205
sI1205
S'shit'
p1206
sI1206
S'marinated'
p1207
sI1207
S'baguette'
p1208
sI1208
S'dimly'
p1209
sI1209
S'dying'
p1210
sI1210
S'floor'
p1211
sI1211
S'marys'
p1212
sI1212
S'sunnyside'
p1213
sI1213
S'relax'
p1214
sI1214
S'generally'
p1215
sI1215
S'scrambled'
p1216
sI1216
S'topped'
p1217
sI1217
S'reality'
p1218
sI1218
S'til'
p1219
sI1219
S'ny'
p1220
sI1220
S'tin'
p1221
sI1221
S'setting'
p1222
sI1222
S'holding'
p1223
sI1223
S'test'
p1224
sI1224
S'page'
p1225
sI1225
S'\xc2\xa0unfortunately'
p1226
sI1226
S'smell'
p1227
sI1227
S'roll'
p1228
sI1228
S'1-2'
p1229
sI1229
S'absurd'
p1230
sI1230
S'scored'
p1231
sI1231
S'picture'
p1232
sI1232
S"'s"
p1233
sI1233
S'brothers'
p1234
sI1234
S'cab'
p1235
sI1235
S'trips'
p1236
sI1236
S'helps'
p1237
sI1237
S'juices'
p1238
sI1238
S'welcome'
p1239
sI1239
S'rancheros'
p1240
sI1240
S'update'
p1241
sI1241
S'diet'
p1242
sI1242
S'transported'
p1243
sI1243
S"let's"
p1244
sI1244
S'fell'
p1245
sI1245
S'palma'
p1246
sI1246
S'award'
p1247
sI1247
S'rolling'
p1248
sI1248
S'pizzas'
p1249
sI1249
S'weekend'
p1250
sI1250
S'careful'
p1251
sI1251
S'jewelry'
p1252
sI1252
S'jones'
p1253
sI1253
S'warn'
p1254
sI1254
S'younger'
p1255
sI1255
S'quirky'
p1256
sI1256
S'longer'
p1257
sI1257
S'potato'
p1258
sI1258
S'assume'
p1259
sI1259
S'typically'
p1260
sI1260
S'memorial'
p1261
sI1261
S'daily'
p1262
sI1262
S"n'"
p1263
sI1263
S'loyal'
p1264
sI1264
S'text'
p1265
sI1265
S'reception'
p1266
sI1266
S'time'
p1267
sI1267
S'push'
p1268
sI1268
S'serious'
p1269
sI1269
S'babbo'
p1270
sI1270
S'decision'
p1271
sI1271
S'stick'
p1272
sI1272
S'neighbors'
p1273
sI1273
S'slope'
p1274
sI1274
S'concept'
p1275
sI1275
S'managed'
p1276
sI1276
S'0'
p1277
sI1277
S'chain'
p1278
sI1278
S'regulars'
p1279
sI1279
S'dance'
p1280
sI1280
S'reviewers'
p1281
sI1281
S'madison'
p1282
sI1282
S'manager'
p1283
sI1283
S'mile'
p1284
sI1284
S'/'
p1285
sI1285
S'grateful'
p1286
sI1286
S'skin'
p1287
sI1287
S'katja'
p1288
sI1288
S'chair'
p1289
sI1289
S'milk'
p1290
sI1290
S'row'
p1291
sI1291
S'certainly'
p1292
sI1292
S'anticipation'
p1293
sI1293
S'yummy'
p1294
sI1294
S'zone'
p1295
sI1295
S'\xc2\xa0service'
p1296
sI1296
S'father'
p1297
sI1297
S'disgusting'
p1298
sI1298
S'environment'
p1299
sI1299
S'veg'
p1300
sI1300
S'finally'
p1301
sI1301
S'unpleasant'
p1302
sI1302
S'splurge'
p1303
sI1303
S'marks'
p1304
sI1304
S'couscous'
p1305
sI1305
S'ish'
p1306
sI1306
S'\xc2\xa0but'
p1307
sI1307
S'brown'
p1308
sI1308
S'indoor'
p1309
sI1309
S'string'
p1310
sI1310
S'jerk'
p1311
sI1311
S'bedford'
p1312
sI1312
S'recipe'
p1313
sI1313
S'construction'
p1314
sI1314
S'imported'
p1315
sI1315
S'keeping'
p1316
sI1316
S'vegan'
p1317
sI1317
S'tacos'
p1318
sI1318
S'aspects'
p1319
sI1319
S'bustle'
p1320
sI1320
S'stays'
p1321
sI1321
S'cook'
p1322
sI1322
S'bartender'
p1323
sI1323
S'trouble'
p1324
sI1324
S'blast'
p1325
sI1325
S'exact'
p1326
sI1326
S'minute'
p1327
sI1327
S'cool'
p1328
sI1328
S'dim'
p1329
sI1329
S'cooks'
p1330
sI1330
S'tortillas'
p1331
sI1331
S'impressive'
p1332
sI1332
S'level'
p1333
sI1333
S'did'
p1334
sI1334
S'die'
p1335
sI1335
S'dig'
p1336
sI1336
S'brother'
p1337
sI1337
S'levee'
p1338
sI1338
S'standards'
p1339
sI1339
S'leave'
p1340
sI1340
S'item'
p1341
sI1341
S'soooo'
p1342
sI1342
S'settle'
p1343
sI1343
S'subway'
p1344
sI1344
S'team'
p1345
sI1345
S'quick'
p1346
sI1346
S'guy'
p1347
sI1347
S'dip'
p1348
sI1348
S'round'
p1349
sI1349
S"it'll"
p1350
sI1350
S'upper'
p1351
sI1351
S'pork'
p1352
sI1352
S'unexpected'
p1353
sI1353
S'says'
p1354
sI1354
S'regret'
p1355
sI1355
S'glazed'
p1356
sI1356
S'seasoning'
p1357
sI1357
S'sigh'
p1358
sI1358
S'discover'
p1359
sI1359
S'sign'
p1360
sI1360
S'appetizers:'
p1361
sI1361
S'cost'
p1362
sI1362
S'radar'
p1363
sI1363
S'\xc2\xa0friendly'
p1364
sI1364
S'comforting'
p1365
sI1365
S'coppelia'
p1366
sI1366
S'eating'
p1367
sI1367
S'rough'
p1368
sI1368
S'gnocchi'
p1369
sI1369
S'drinks'
p1370
sI1370
S'greenpoint'
p1371
sI1371
S'tartare'
p1372
sI1372
S'stands'
p1373
sI1373
S'chase:'
p1374
sI1374
S'imagined'
p1375
sI1375
S'celebrated'
p1376
sI1376
S'jambalaya'
p1377
sI1377
S'melt'
p1378
sI1378
S'swiss'
p1379
sI1379
S'reminiscent'
p1380
sI1380
S'rub'
p1381
sI1381
S'suspect'
p1382
sI1382
S'goes'
p1383
sI1383
S'shared'
p1384
sI1384
S'falling'
p1385
sI1385
S'word:'
p1386
sI1386
S'filled'
p1387
sI1387
S'satisfy'
p1388
sI1388
S'realizing'
p1389
sI1389
S'burn'
p1390
sI1390
S'paneer'
p1391
sI1391
S'mussels'
p1392
sI1392
S'designed'
p1393
sI1393
S'discovery'
p1394
sI1394
S'french'
p1395
sI1395
S'understanding'
p1396
sI1396
S'water'
p1397
sI1397
S'2:30'
p1398
sI1398
S'fluke'
p1399
sI1399
S'snack'
p1400
sI1400
S'groups'
p1401
sI1401
S'address'
p1402
sI1402
S'alone'
p1403
sI1403
S'grabbed'
p1404
sI1404
S'along'
p1405
sI1405
S'refused'
p1406
sI1406
S'hills'
p1407
sI1407
S'change'
p1408
sI1408
S'wait'
p1409
sI1409
S'box'
p1410
sI1410
S'boy'
p1411
sI1411
S"chef's"
p1412
sI1412
S'balaboosta'
p1413
sI1413
S'healthy'
p1414
sI1414
S'root'
p1415
sI1415
S'title'
p1416
sI1416
S'guilty'
p1417
sI1417
S'alta'
p1418
sI1418
S'proud'
p1419
sI1419
S'queue'
p1420
sI1420
S"'hood"
p1421
sI1421
S'cinnamon'
p1422
sI1422
S'suggestion'
p1423
sI1423
S'boo'
p1424
sI1424
S'usually'
p1425
sI1425
S'hospitality'
p1426
sI1426
S'weird'
p1427
sI1427
S'entrees'
p1428
sI1428
S'nowhere'
p1429
sI1429
S'love'
p1430
sI1430
S'kebab'
p1431
sI1431
S'extra'
p1432
sI1432
S'atrocious'
p1433
sI1433
S'prefer'
p1434
sI1434
S'hollandaise'
p1435
sI1435
S'bloody'
p1436
sI1436
S'shwarma'
p1437
sI1437
S'1st'
p1438
sI1438
S'fool'
p1439
sI1439
S'hamburger'
p1440
sI1440
S'rarely'
p1441
sI1441
S'pitchers'
p1442
sI1442
S'market'
p1443
sI1443
S'flavors'
p1444
sI1444
S'scallop'
p1445
sI1445
S'yep'
p1446
sI1446
S'working'
p1447
sI1447
S'sake'
p1448
sI1448
S'positive'
p1449
sI1449
S'angry'
p1450
sI1450
S'hopefully'
p1451
sI1451
S'visit'
p1452
sI1452
S'sports'
p1453
sI1453
S'creamy'
p1454
sI1454
S'live'
p1455
sI1455
S'wood'
p1456
sI1456
S'wonderfully'
p1457
sI1457
S'remind'
p1458
sI1458
S'wondering'
p1459
sI1459
S'memory'
p1460
sI1460
S'msg'
p1461
sI1461
S'review:'
p1462
sI1462
S'australian'
p1463
sI1463
S'meyer'
p1464
sI1464
S'matador'
p1465
sI1465
S'today'
p1466
sI1466
S'loving'
p1467
sI1467
S'entrance'
p1468
sI1468
S'sharing'
p1469
sI1469
S'technically'
p1470
sI1470
S'club'
p1471
sI1471
S'suggestions'
p1472
sI1472
S'acceptable'
p1473
sI1473
S'cashier'
p1474
sI1474
S'clients'
p1475
sI1475
S'chocolate'
p1476
sI1476
S'downtown'
p1477
sI1477
S'bold'
p1478
sI1478
S'beers'
p1479
sI1479
S'olive'
p1480
sI1480
S'effort'
p1481
sI1481
S'amelie'
p1482
sI1482
S'benches'
p1483
sI1483
S'fly'
p1484
sI1484
S'8pm'
p1485
sI1485
S'tokyo'
p1486
sI1486
S'\xc2\xa0with'
p1487
sI1487
S'originally'
p1488
sI1488
S'pretend'
p1489
sI1489
S'soul'
p1490
sI1490
S'cat'
p1491
sI1491
S'reviews'
p1492
sI1492
S'soup'
p1493
sI1493
S'foodies'
p1494
sI1494
S'sour'
p1495
sI1495
S'can'
p1496
sI1496
S'co-workers'
p1497
sI1497
S'following'
p1498
sI1498
S'making'
p1499
sI1499
S'meatball'
p1500
sI1500
S'arrive'
p1501
sI1501
S'bites'
p1502
sI1502
S'dollars'
p1503
sI1503
S'kati'
p1504
sI1504
S'reviewing'
p1505
sI1505
S'heart'
p1506
sI1506
S'crazy'
p1507
sI1507
S'valentines'
p1508
sI1508
S'figure'
p1509
sI1509
S'december'
p1510
sI1510
S'awesome'
p1511
sI1511
S'sense'
p1512
sI1512
S"didn't"
p1513
sI1513
S'confused'
p1514
sI1514
S'sample'
p1515
sI1515
S'heard'
p1516
sI1516
S'critic'
p1517
sI1517
S'incredible'
p1518
sI1518
S'allowed'
p1519
sI1519
S'chic'
p1520
sI1520
S'ngam'
p1521
sI1521
S'katsu'
p1522
sI1522
S'craze'
p1523
sI1523
S'tremendous'
p1524
sI1524
S'pink'
p1525
sI1525
S'harissa'
p1526
sI1526
S'pinto'
p1527
sI1527
S'tostones'
p1528
sI1528
S'winter'
p1529
sI1529
S'himalayan'
p1530
sI1530
S'mole'
p1531
sI1531
S'means'
p1532
sI1532
S'magazine'
p1533
sI1533
S'nyu'
p1534
sI1534
S'1'
p1535
sI1535
S'till'
p1536
sI1536
S'sunday'
p1537
sI1537
S'\xc2\xa0people'
p1538
sI1538
S'actual'
p1539
sI1539
S'pure'
p1540
sI1540
S'familiar'
p1541
sI1541
S'nyc'
p1542
sI1542
S'vitae'
p1543
sI1543
S'speaks'
p1544
sI1544
S'flavored'
p1545
sI1545
S'community'
p1546
sI1546
S'map'
p1547
sI1547
S'staying'
p1548
sI1548
S'din'
p1549
sI1549
S'cocktail'
p1550
sI1550
S'may'
p1551
sI1551
S'coworker'
p1552
sI1552
S'dive'
p1553
sI1553
S'spot'
p1554
sI1554
S'latte'
p1555
sI1555
S'fireplace'
p1556
sI1556
S'mac'
p1557
sI1557
S'birthday'
p1558
sI1558
S'scratch'
p1559
sI1559
S'mad'
p1560
sI1560
S'date'
p1561
sI1561
S'such'
p1562
sI1562
S'suck'
p1563
sI1563
S'guys'
p1564
sI1564
S'unbelievably'
p1565
sI1565
S'man'
p1566
sI1566
S'prob'
p1567
sI1567
S'cod'
p1568
sI1568
S'crepe'
p1569
sI1569
S'remember'
p1570
sI1570
S'falafels'
p1571
sI1571
S'brussel'
p1572
sI1572
S'whenever'
p1573
sI1573
S'maybe'
p1574
sI1574
S'tapas'
p1575
sI1575
S'\xc2\xa0never'
p1576
sI1576
S'\xc2\xa0order'
p1577
sI1577
S'st'
p1578
sI1578
S'rather'
p1579
sI1579
S'mango'
p1580
sI1580
S'so'
p1581
sI1581
S'automatically'
p1582
sI1582
S'basket'
p1583
sI1583
S'\xc2\xa0to'
p1584
sI1584
S'pulled'
p1585
sI1585
S'sf'
p1586
sI1586
S'talk'
p1587
sI1587
S'typical'
p1588
sI1588
S'drunken'
p1589
sI1589
S'cute'
p1590
sI1590
S'serving'
p1591
sI1591
S'carmines'
p1592
sI1592
S'seemingly'
p1593
sI1593
S'indeed'
p1594
sI1594
S'pointed'
p1595
sI1595
S'toward'
p1596
sI1596
S'mainly'
p1597
sI1597
S'years'
p1598
sI1598
S'decently'
p1599
sI1599
S'course'
p1600
sI1600
S'terrace'
p1601
sI1601
S'shake'
p1602
sI1602
S'cold'
p1603
sI1603
S'still'
p1604
sI1604
S'\xc2\xa0would'
p1605
sI1605
S'connoisseur'
p1606
sI1606
S"\xc2\xa0i'd"
p1607
sI1607
S'avid'
p1608
sI1608
S'group'
p1609
sI1609
S'thank'
p1610
sI1610
S'puffs'
p1611
sI1611
S"he's"
p1612
sI1612
S'smoothie'
p1613
sI1613
S'interesting'
p1614
sI1614
S'appetizers'
p1615
sI1615
S'sampling'
p1616
sI1616
S'buns'
p1617
sI1617
S'faves'
p1618
sI1618
S'window'
p1619
sI1619
S'offers'
p1620
sI1620
S'celebrate'
p1621
sI1621
S'saxon'
p1622
sI1622
S'hometown'
p1623
sI1623
S'policy'
p1624
sI1624
S'ours'
p1625
sI1625
S'main'
p1626
sI1626
S'texas'
p1627
sI1627
S'happened'
p1628
sI1628
S'nom'
p1629
sI1629
S'non'
p1630
sI1630
S'stix'
p1631
sI1631
S'tucked'
p1632
sI1632
S'3'
p1633
sI1633
S'conversations'
p1634
sI1634
S'omakase'
p1635
sI1635
S'killer'
p1636
sI1636
S'$$'
p1637
sI1637
S'uws'
p1638
sI1638
S'sooner'
p1639
sI1639
S'jalape\xc3\xb1o'
p1640
sI1640
S'lunch'
p1641
sI1641
S'place-'
p1642
sI1642
S'compelled'
p1643
sI1643
S'half'
p1644
sI1644
S'not'
p1645
sI1645
S'feature'
p1646
sI1646
S'now'
p1647
sI1647
S'ketchup'
p1648
sI1648
S'nor'
p1649
sI1649
S'wont'
p1650
sI1650
S'moist'
p1651
sI1651
S'term'
p1652
sI1652
S'pommes'
p1653
sI1653
S"freakin'"
p1654
sI1654
S'name'
p1655
sI1655
S'lies'
p1656
sI1656
S'january'
p1657
sI1657
S'drop'
p1658
sI1658
S'obsession'
p1659
sI1659
S'xlb'
p1660
sI1660
S'intrigued'
p1661
sI1661
S'wong'
p1662
sI1662
S'rock'
p1663
sI1663
S'read:'
p1664
sI1664
S'entirely'
p1665
sI1665
S'quarter'
p1666
sI1666
S'em'
p1667
sI1667
S'el'
p1668
sI1668
S'brews'
p1669
sI1669
S'square'
p1670
sI1670
S'short:'
p1671
sI1671
S'eh'
p1672
sI1672
S'mexico'
p1673
sI1673
S'yeah'
p1674
sI1674
S'soy'
p1675
sI1675
S'catching'
p1676
sI1676
S'entering'
p1677
sI1677
S'year'
p1678
sI1678
S'et'
p1679
sI1679
S'girl'
p1680
sI1680
S'worried'
p1681
sI1681
S'salads'
p1682
sI1682
S'neighbourhood'
p1683
sI1683
S'buzz'
p1684
sI1684
S'living'
p1685
sI1685
S'ultimately'
p1686
sI1686
S'jackson'
p1687
sI1687
S'opened'
p1688
sI1688
S'3rd'
p1689
sI1689
S'space'
p1690
sI1690
S'rounding'
p1691
sI1691
S'blt'
p1692
sI1692
S'content'
p1693
sI1693
S'factory'
p1694
sI1694
S'drinker'
p1695
sI1695
S'downhill'
p1696
sI1696
S'looking'
p1697
sI1697
S'mess'
p1698
sI1698
S'seriously'
p1699
sI1699
S'had:'
p1700
sI1700
S"shouldn't"
p1701
sI1701
S'9:30pm'
p1702
sI1702
S'internet'
p1703
sI1703
S'preface'
p1704
sI1704
S'pizzeria'
p1705
sI1705
S'squares'
p1706
sI1706
S'linguine'
p1707
sI1707
S'shows'
p1708
sI1708
S'earlier'
p1709
sI1709
S'tempura'
p1710
sI1710
S'huevos'
p1711
sI1711
S'hefty'
p1712
sI1712
S'million'
p1713
sI1713
S'\xc2\xa0drinks'
p1714
sI1714
S'cart'
p1715
sI1715
S'quite'
p1716
sI1716
S'magnificent'
p1717
sI1717
S'aioli'
p1718
sI1718
S'oasis'
p1719
sI1719
S'california'
p1720
sI1720
S'besides'
p1721
sI1721
S'grandma'
p1722
sI1722
S'vegetarians'
p1723
sI1723
S'"must'
p1724
sI1724
S'card'
p1725
sI1725
S'care'
p1726
sI1726
S'partner'
p1727
sI1727
S'advance'
p1728
sI1728
S'chose'
p1729
sI1729
S'selections'
p1730
sI1730
S'waiter'
p1731
sI1731
S"sanford's"
p1732
sI1732
S'100%'
p1733
sI1733
S'calories'
p1734
sI1734
S'modest'
p1735
sI1735
S'british'
p1736
sI1736
S'honest'
p1737
sI1737
S'thing'
p1738
sI1738
S'funky'
p1739
sI1739
S'place'
p1740
sI1740
S'pepperoni'
p1741
sI1741
S'brunch:'
p1742
sI1742
S'view'
p1743
sI1743
S'think'
p1744
sI1744
S'waited'
p1745
sI1745
S'first'
p1746
sI1746
S'exotic'
p1747
sI1747
S'cheese'
p1748
sI1748
S'initial'
p1749
sI1749
S'ignored'
p1750
sI1750
S'cheesesteak'
p1751
sI1751
S'rounded'
p1752
sI1752
S'yourself'
p1753
sI1753
S'shout'
p1754
sI1754
S'mignon'
p1755
sI1755
S'long'
p1756
sI1756
S'directly'
p1757
sI1757
S'spanish'
p1758
sI1758
S'uncle'
p1759
sI1759
S'impossible'
p1760
sI1760
S'sounds'
p1761
sI1761
S'drove'
p1762
sI1762
S'open'
p1763
sI1763
S'cheesy'
p1764
sI1764
S'accommodate'
p1765
sI1765
S'size'
p1766
sI1766
S'city'
p1767
sI1767
S'given'
p1768
sI1768
S'necessarily'
p1769
sI1769
S'checked'
p1770
sI1770
S'district'
p1771
sI1771
S"valentine's"
p1772
sI1772
S'ceviche'
p1773
sI1773
S'bite'
p1774
sI1774
S'flatiron'
p1775
sI1775
S'europe'
p1776
sI1776
S'weekdays'
p1777
sI1777
S't'
p1778
sI1778
S'anyone'
p1779
sI1779
S'outing'
p1780
sI1780
S'mackerel'
p1781
sI1781
S'2'
p1782
sI1782
S'draft'
p1783
sI1783
S'stuffed'
p1784
sI1784
S'masala'
p1785
sI1785
S'white'
p1786
sI1786
S'bits'
p1787
sI1787
S'friend'
p1788
sI1788
S'gives'
p1789
sI1789
S'exploring'
p1790
sI1790
S'eyes'
p1791
sI1791
S'mostly'
p1792
sI1792
S'that'
p1793
sI1793
S'popping'
p1794
sI1794
S'season'
p1795
sI1795
S'vermicelli'
p1796
sI1796
S"houston's"
p1797
sI1797
S'hurt'
p1798
sI1798
S'ridiculous'
p1799
sI1799
S"grimaldi's"
p1800
sI1800
S'fooled'
p1801
sI1801
S'thai'
p1802
sI1802
S'flowers'
p1803
sI1803
S'kabob'
p1804
sI1804
S'than'
p1805
sI1805
S"here's"
p1806
sI1806
S'boyfriend'
p1807
sI1807
S'11'
p1808
sI1808
S'10'
p1809
sI1809
S'13'
p1810
sI1810
S'12'
p1811
sI1811
S'$10'
p1812
sI1812
S'unfortunately'
p1813
sI1813
S'$12'
p1814
sI1814
S'$13'
p1815
sI1815
S'scrumptious'
p1816
sI1816
S'gotta'
p1817
sI1817
S'handmade'
p1818
sI1818
S'$18'
p1819
sI1819
S'whom'
p1820
sI1820
S'so-so'
p1821
sI1821
S'midtown'
p1822
sI1822
S'r'
p1823
sI1823
S'apples'
p1824
sI1824
S'venture'
p1825
sI1825
S'were'
p1826
sI1826
S'cards'
p1827
sI1827
S'poisoning'
p1828
sI1828
S'gigantic'
p1829
sI1829
S'tastiest'
p1830
sI1830
S'wandering'
p1831
sI1831
S'dissapointed'
p1832
sI1832
S'sublime'
p1833
sI1833
S'\xc2\xa0get'
p1834
sI1834
S'and'
p1835
sI1835
S'alot'
p1836
sI1836
S'coconut'
p1837
sI1837
S'tasted'
p1838
sI1838
S'nicer'
p1839
sI1839
S'overcooked'
p1840
sI1840
S'slaw'
p1841
sI1841
S'parking'
p1842
sI1842
S'turned'
p1843
sI1843
S'locations'
p1844
sI1844
S'alley'
p1845
sI1845
S'sad'
p1846
sI1846
S'tarte'
p1847
sI1847
S'say'
p1848
sI1848
S'slam'
p1849
sI1849
S'pastry'
p1850
sI1850
S'breakfast'
p1851
sI1851
S'borough'
p1852
sI1852
S'saw'
p1853
sI1853
S'any'
p1854
sI1854
S'sau'
p1855
sI1855
S'sat'
p1856
sI1856
S'prosperity'
p1857
sI1857
S'form'
p1858
sI1858
S'cheerful'
p1859
sI1859
S'coal'
p1860
sI1860
S'efficient'
p1861
sI1861
S"bonnie's"
p1862
sI1862
S'fucking'
p1863
sI1863
S'snowy'
p1864
sI1864
S'aside'
p1865
sI1865
S'shocked'
p1866
sI1866
S'opentable'
p1867
sI1867
S'terrific'
p1868
sI1868
S'dining'
p1869
sI1869
S'ideal'
p1870
sI1870
S'potential'
p1871
sI1871
S'take'
p1872
sI1872
S'online'
p1873
sI1873
S'interior'
p1874
sI1874
S'wanting'
p1875
sI1875
S'paulie'
p1876
sI1876
S'wary'
p1877
sI1877
S'cluny'
p1878
sI1878
S'dips'
p1879
sI1879
S'channel'
p1880
sI1880
S'ultimate'
p1881
sI1881
S'urge'
p1882
sI1882
S'begin'
p1883
sI1883
S'sure'
p1884
sI1884
S'multiple'
p1885
sI1885
S'\xc2\xa0atmosphere'
p1886
sI1886
S'theatre'
p1887
sI1887
S'normal'
p1888
sI1888
S'track'
p1889
sI1889
S'cheesecake'
p1890
sI1890
S'price'
p1891
sI1891
S'knew'
p1892
sI1892
S'fails'
p1893
sI1893
S'buffet'
p1894
sI1894
S'falls'
p1895
sI1895
S'visitors'
p1896
sI1896
S'nutella'
p1897
sI1897
S'importantly'
p1898
sI1898
S'expertly'
p1899
sI1899
S'pricy'
p1900
sI1900
S'complaints'
p1901
sI1901
S'america'
p1902
sI1902
S'queens'
p1903
sI1903
S'sauteed'
p1904
sI1904
S'cuban'
p1905
sI1905
S'especially'
p1906
sI1906
S'surprising'
p1907
sI1907
S'izakaya'
p1908
sI1908
S'considered'
p1909
sI1909
S'dream'
p1910
sI1910
S'seafood'
p1911
sI1911
S'later'
p1912
sI1912
S'hungry'
p1913
sI1913
S'wing'
p1914
sI1914
S'24/7'
p1915
sI1915
S'properly'
p1916
sI1916
S'sunset'
p1917
sI1917
S'soho'
p1918
sI1918
S'alcoholic'
p1919
sI1919
S'arguably'
p1920
sI1920
S'professional'
p1921
sI1921
S'salt'
p1922
sI1922
S'yelper'
p1923
sI1923
S'7:30'
p1924
sI1924
S'quantity'
p1925
sI1925
S'shop'
p1926
sI1926
S'rating'
p1927
sI1927
S'walking'
p1928
sI1928
S'shot'
p1929
sI1929
S'liking'
p1930
sI1930
S'show'
p1931
sI1931
S'german'
p1932
sI1932
S'minca'
p1933
sI1933
S'aroma'
p1934
sI1934
S'cheap'
p1935
sI1935
S'contemporary'
p1936
sI1936
S'corned'
p1937
sI1937
S'discovered'
p1938
sI1938
S'russian'
p1939
sI1939
S'bright'
p1940
sI1940
S'cheesecakes'
p1941
sI1941
S"mary's"
p1942
sI1942
S'inconsistent'
p1943
sI1943
S'faster'
p1944
sI1944
S'corner'
p1945
sI1945
S'\xc2\xa0you'
p1946
sI1946
S'tend'
p1947
sI1947
S'calamari'
p1948
sI1948
S'maine'
p1949
sI1949
S'fifth'
p1950
sI1950
S'ground'
p1951
sI1951
S'frequent'
p1952
sI1952
S'slow'
p1953
sI1953
S'ratio'
p1954
sI1954
S'favor'
p1955
sI1955
S'freemans'
p1956
sI1956
S'treasure'
p1957
sI1957
S'cheeseburger'
p1958
sI1958
S'behind'
p1959
sI1959
S'texture'
p1960
sI1960
S'lean'
p1961
sI1961
S"toby's"
p1962
sI1962
S'only'
p1963
sI1963
S'going'
p1964
sI1964
S'black'
p1965
sI1965
S'dancing'
p1966
sI1966
S'\xc2\xa0was'
p1967
sI1967
S'pumpkin'
p1968
sI1968
S'53rd'
p1969
sI1969
S'pastrami'
p1970
sI1970
S'get'
p1971
sI1971
S'mission'
p1972
sI1972
S'jazz'
p1973
sI1973
S'freezing'
p1974
sI1974
S'expectation'
p1975
sI1975
S'truly'
p1976
sI1976
S'cannot'
p1977
sI1977
S'nearly'
p1978
sI1978
S'candles'
p1979
sI1979
S'gem'
p1980
sI1980
S'freaking'
p1981
sI1981
S'prime'
p1982
sI1982
S'regarding'
p1983
sI1983
S'\xc2\xa0oh'
p1984
sI1984
S'seared'
p1985
sI1985
S'lame'
p1986
sI1986
S'held'
p1987
sI1987
S'malaysian'
p1988
sI1988
S'isnt'
p1989
sI1989
S'morning'
p1990
sI1990
S'catering'
p1991
sI1991
S'miles'
p1992
sI1992
S"could've"
p1993
sI1993
S'celebratory'
p1994
sI1994
S'dough'
p1995
sI1995
S'finishing'
p1996
sI1996
S'tortilla'
p1997
sI1997
S'where'
p1998
sI1998
S'husband'
p1999
sI1999
S'carte'
p2000
sI2000
S'manages'
p2001
sI2001
S'arrival'
p2002
sI2002
S'picnic'
p2003
sI2003
S'concert'
p2004
sI2004
S'mondays'
p2005
sI2005
S'comparable'
p2006
sI2006
S'seat'
p2007
sI2007
S'cocktails'
p2008
sI2008
S'college'
p2009
sI2009
S'anyways'
p2010
sI2010
S'divey'
p2011
sI2011
S'hell'
p2012
sI2012
S'#2'
p2013
sI2013
S'#1'
p2014
sI2014
S'ruined'
p2015
sI2015
S'dives'
p2016
sI2016
S"luzzo's"
p2017
sI2017
S'wonder'
p2018
sI2018
S'mecca'
p2019
sI2019
S'planet'
p2020
sI2020
S'israeli'
p2021
sI2021
S'satisfying'
p2022
sI2022
S'taqueria'
p2023
sI2023
S'sorely'
p2024
sI2024
S'ways'
p2025
sI2025
S'crawfish'
p2026
sI2026
S'review'
p2027
sI2027
S'definite'
p2028
sI2028
S'moderate'
p2029
sI2029
S'label'
p2030
sI2030
S'teeny'
p2031
sI2031
S'glorious'
p2032
sI2032
S'outside'
p2033
sI2033
S'chewy'
p2034
sI2034
S'\xc2\xa0wait'
p2035
sI2035
S'john'
p2036
sI2036
S'between'
p2037
sI2037
S'adore'
p2038
sI2038
S'reading'
p2039
sI2039
S'across'
p2040
sI2040
S'whipped'
p2041
sI2041
S'affordable'
p2042
sI2042
S'5:30'
p2043
sI2043
S'notice'
p2044
sI2044
S'\xc2\xa0everyone'
p2045
sI2045
S'august'
p2046
sI2046
S'messed'
p2047
sI2047
S'bump'
p2048
sI2048
S'servings'
p2049
sI2049
S'points'
p2050
sI2050
S'swanky'
p2051
sI2051
S'supermarket'
p2052
sI2052
S'blame'
p2053
sI2053
S'\xc2\xa0wow'
p2054
sI2054
S'tuk'
p2055
sI2055
S'spare'
p2056
sI2056
S'diners'
p2057
sI2057
S'sirene'
p2058
sI2058
S'coma'
p2059
sI2059
S'article'
p2060
sI2060
S'come'
p2061
sI2061
S'vinegar'
p2062
sI2062
S'deliciously'
p2063
sI2063
S'dates'
p2064
sI2064
S"ruth's"
p2065
sI2065
S"freeman's"
p2066
sI2066
S'many'
p2067
sI2067
S'cafes'
p2068
sI2068
S'1:30'
p2069
sI2069
S'quiet'
p2070
sI2070
S'restroom'
p2071
sI2071
S'personal'
p2072
sI2072
S's'
p2073
sI2073
S'patrons'
p2074
sI2074
S'disappointment'
p2075
sI2075
S'highlights'
p2076
sI2076
S'chorizo'
p2077
sI2077
S'\xc2\xa0be'
p2078
sI2078
S"can't"
p2079
sI2079
S'nearby'
p2080
sI2080
S'duty'
p2081
sI2081
S'among'
p2082
sI2082
S'madness'
p2083
sI2083
S'6:30'
p2084
sI2084
S'color'
p2085
sI2085
S'pot'
p2086
sI2086
S'authenticity'
p2087
sI2087
S'period'
p2088
sI2088
S'pop'
p2089
sI2089
S','
p2090
sI2090
S'pylos'
p2091
sI2091
S'imo'
p2092
sI2092
S"couldn't"
p2093
sI2093
S'unassuming'
p2094
sI2094
S'freak'
p2095
sI2095
S'crew'
p2096
sI2096
S'considering'
p2097
sI2097
S'save'
p2098
sI2098
S'olives'
p2099
sI2099
S'cares'
p2100
sI2100
S'stretch'
p2101
sI2101
S'west'
p2102
sI2102
S'classic'
p2103
sI2103
S'informed'
p2104
sI2104
S'vacation'
p2105
sI2105
S'layer'
p2106
sI2106
S'mark'
p2107
sI2107
S'cucumber'
p2108
sI2108
S'combined'
p2109
sI2109
S'judging'
p2110
sI2110
S'westside'
p2111
sI2111
S'featuring'
p2112
sI2112
S'hardly'
p2113
sI2113
S'ravioli'
p2114
sI2114
S'fig'
p2115
sI2115
S'wants'
p2116
sI2116
S'colors'
p2117
sI2117
S'shopping'
p2118
sI2118
S'\xc2\xa0two'
p2119
sI2119
S'tasteless'
p2120
sI2120
S'offered'
p2121
sI2121
S'squash'
p2122
sI2122
S'tiger'
p2123
sI2123
S'quesadilla'
p2124
sI2124
S'eatery'
p2125
sI2125
S'\xc2\xa0sure'
p2126
sI2126
S'wake'
p2127
sI2127
S'penn'
p2128
sI2128
S'eaters'
p2129
sI2129
S'undercooked'
p2130
sI2130
S'attentive'
p2131
sI2131
S'hidden'
p2132
sI2132
S'those'
p2133
sI2133
S'countless'
p2134
sI2134
S'case'
p2135
sI2135
S'myself'
p2136
sI2136
S'casa'
p2137
sI2137
S'4-5'
p2138
sI2138
S'these'
p2139
sI2139
S'might'
p2140
sI2140
S'accommodating'
p2141
sI2141
S'chinatown'
p2142
sI2142
S'cash'
p2143
sI2143
S'resturant'
p2144
sI2144
S'trick'
p2145
sI2145
S'bar/restaurant'
p2146
sI2146
S'warning'
p2147
sI2147
S'shall'
p2148
sI2148
S'pollo'
p2149
sI2149
S'squeezed'
p2150
sI2150
S'situation'
p2151
sI2151
S'shops'
p2152
sI2152
S'ordered:'
p2153
sI2153
S'order:'
p2154
sI2154
S'invited'
p2155
sI2155
S'coolest'
p2156
sI2156
S'ive'
p2157
sI2157
S'bathrooms'
p2158
sI2158
S'chat'
p2159
sI2159
S'cuts'
p2160
sI2160
S'j'
p2161
sI2161
S"difara's"
p2162
sI2162
S'coffee'
p2163
sI2163
S'according'
p2164
sI2164
S'couples'
p2165
sI2165
S'middle'
p2166
sI2166
S'someone'
p2167
sI2167
S'\xc2\xa0perfect'
p2168
sI2168
S'carbonara'
p2169
sI2169
S'somebody'
p2170
sI2170
S'protein'
p2171
sI2171
S'pepe'
p2172
sI2172
S'mediocre'
p2173
sI2173
S'worry'
p2174
sI2174
S'comments'
p2175
sI2175
S'different'
p2176
sI2176
S'yo'
p2177
sI2177
S'april'
p2178
sI2178
S'pay'
p2179
sI2179
S'granted'
p2180
sI2180
S'10:30'
p2181
sI2181
S'bowl'
p2182
sI2182
S'tour'
p2183
sI2183
S'macarons'
p2184
sI2184
S'trip'
p2185
sI2185
S'ya'
p2186
sI2186
S'pad'
p2187
sI2187
S'catfish'
p2188
sI2188
S'coworkers'
p2189
sI2189
S'stepped'
p2190
sI2190
S'frequented'
p2191
sI2191
S'events'
p2192
sI2192
S'pan'
p2193
sI2193
S'berry'
p2194
sI2194
S'week'
p2195
sI2195
S'fyi'
p2196
sI2196
S'finish'
p2197
sI2197
S'booths'
p2198
sI2198
S'closest'
p2199
sI2199
S'singapore'
p2200
sI2200
S'nj'
p2201
sI2201
S'companion'
p2202
sI2202
S'running'
p2203
sI2203
S'fruit'
p2204
sI2204
S'delicate'
p2205
sI2205
S'favorites'
p2206
sI2206
S'intended'
p2207
sI2207
S'changing'
p2208
sI2208
S'1pm'
p2209
sI2209
S'anticipated'
p2210
sI2210
S'totally'
p2211
sI2211
S'tradition'
p2212
sI2212
S'omelette'
p2213
sI2213
S'awesomeness'
p2214
sI2214
S'burrito'
p2215
sI2215
S'cajun'
p2216
sI2216
S'no'
p2217
sI2217
S'magical'
p2218
sI2218
S'ktown'
p2219
sI2219
S'without'
p2220
sI2220
S'veal'
p2221
sI2221
S'comes'
p2222
sI2222
S'bottle'
p2223
sI2223
S'entered'
p2224
sI2224
S'grumpy'
p2225
sI2225
S'hubby'
p2226
sI2226
S'amazed'
p2227
sI2227
S'charged'
p2228
sI2228
S'summer'
p2229
sI2229
S'outdoor'
p2230
sI2230
S'steamed'
p2231
sI2231
S'being'
p2232
sI2232
S'money'
p2233
sI2233
S'rest'
p2234
sI2234
S'emporio'
p2235
sI2235
S'kill'
p2236
sI2236
S'handed'
p2237
sI2237
S'aspect'
p2238
sI2238
S'over-rated'
p2239
sI2239
S'touch'
p2240
sI2240
S'polish'
p2241
sI2241
S'flavor'
p2242
sI2242
S'speed'
p2243
sI2243
S'weekly'
p2244
sI2244
S'blow'
p2245
sI2245
S'sampled'
p2246
sI2246
S'cilantro'
p2247
sI2247
S'death'
p2248
sI2248
S'pre-theater'
p2249
sI2249
S'overdue'
p2250
sI2250
S'thinking'
p2251
sI2251
S"we've"
p2252
sI2252
S'clientele'
p2253
sI2253
S"everyone's"
p2254
sI2254
S'seems'
p2255
sI2255
S'except'
p2256
sI2256
S'adventurous'
p2257
sI2257
S'blog'
p2258
sI2258
S'lets'
p2259
sI2259
S'interested'
p2260
sI2260
S'9:30'
p2261
sI2261
S'4'
p2262
sI2262
S'samples'
p2263
sI2263
S'sampler'
p2264
sI2264
S'constant'
p2265
sI2265
S'extensive'
p2266
sI2266
S'ca'
p2267
sI2267
S'$11'
p2268
sI2268
S'real'
p2269
sI2269
S'starving'
p2270
sI2270
S'crusty'
p2271
sI2271
S'around'
p2272
sI2272
S'spectacular'
p2273
sI2273
S'desperately'
p2274
sI2274
S'read'
p2275
sI2275
S'replaced'
p2276
sI2276
S'sums'
p2277
sI2277
S'comparing'
p2278
sI2278
S'gonna'
p2279
sI2279
S'dark'
p2280
sI2280
S'traffic'
p2281
sI2281
S'darn'
p2282
sI2282
S'mom'
p2283
sI2283
S'world'
p2284
sI2284
S'execution'
p2285
sI2285
S'disappointed'
p2286
sI2286
S'dare'
p2287
sI2287
S'furniture'
p2288
sI2288
S'birthdays'
p2289
sI2289
S'clam'
p2290
sI2290
S'caprese'
p2291
sI2291
S'crostini'
p2292
sI2292
S'overhyped'
p2293
sI2293
S"tony's"
p2294
sI2294
S'pol'
p2295
sI2295
S'serves'
p2296
sI2296
S'server'
p2297
sI2297
S'breakroom'
p2298
sI2298
S'oxtail'
p2299
sI2299
S'either'
p2300
sI2300
S'occasions'
p2301
sI2301
S'served'
p2302
sI2302
S'tart'
p2303
sI2303
S'accidentally'
p2304
sI2304
S'pok'
p2305
sI2305
S'eventually'
p2306
sI2306
S'seating'
p2307
sI2307
S'barricou'
p2308
sI2308
S'grub'
p2309
sI2309
S'exposed'
p2310
sI2310
S'gilt'
p2311
sI2311
S'naan'
p2312
sI2312
S'\xc2\xa0really'
p2313
sI2313
S'gaia'
p2314
sI2314
S'pickled'
p2315
sI2315
S'competition'
p2316
sI2316
S'meatpacking'
p2317
sI2317
S'butt'
p2318
sI2318
S'curries'
p2319
sI2319
S'lobster'
p2320
sI2320
S'act'
p2321
sI2321
S'respect'
p2322
sI2322
S'id'
p2323
sI2323
S'pickles'
p2324
sI2324
S'divine'
p2325
sI2325
S'thinks'
p2326
sI2326
S'energetic'
p2327
sI2327
S'provided'
p2328
sI2328
S'slice'
p2329
sI2329
S'caribbean'
p2330
sI2330
S'mood'
p2331
sI2331
S"tina's"
p2332
sI2332
S'confirm'
p2333
sI2333
S'memories'
p2334
sI2334
S'noon'
p2335
sI2335
S'overly'
p2336
sI2336
S'stops'
p2337
sI2337
S'nook'
p2338
sI2338
S'tots'
p2339
sI2339
S'critical'
p2340
sI2340
S'hipster'
p2341
sI2341
S'provides'
p2342
sI2342
S'claustrophobic'
p2343
sI2343
S"l'artusi"
p2344
sI2344
S'knife'
p2345
sI2345
S'hustle'
p2346
sI2346
S'turkey'
p2347
sI2347
S'biased'
p2348
sI2348
S'felt'
p2349
sI2349
S'wheat'
p2350
sI2350
S'roast'
p2351
sI2351
S'business'
p2352
sI2352
S'intimate'
p2353
sI2353
S'seconds'
p2354
sI2354
S'chefs'
p2355
sI2355
S'unusual'
p2356
sI2356
S'polite'
p2357
sI2357
S'$50'
p2358
sI2358
S'hectic'
p2359
sI2359
S'accommodated'
p2360
sI2360
S'royale'
p2361
sI2361
S'thailand'
p2362
sI2362
S'exciting'
p2363
sI2363
S'throw'
p2364
sI2364
S'on'
p2365
sI2365
S'stone'
p2366
sI2366
S'arroz'
p2367
sI2367
S'ok'
p2368
sI2368
S'oj'
p2369
sI2369
S'oh'
p2370
sI2370
S'island'
p2371
sI2371
S'industry'
p2372
sI2372
S'paninis'
p2373
sI2373
S'favorite'
p2374
sI2374
S'drag'
p2375
sI2375
S'shrimp'
p2376
sI2376
S'chop'
p2377
sI2377
S'pistachio'
p2378
sI2378
S'juniors'
p2379
sI2379
S'wolf'
p2380
sI2380
S'stand'
p2381
sI2381
S'neighbor'
p2382
sI2382
S"it's"
p2383
sI2383
S'mixed'
p2384
sI2384
S'donut'
p2385
sI2385
S'\xc2\xa0good'
p2386
sI2386
S'or'
p2387
sI2387
S'road'
p2388
sI2388
S'wontons'
p2389
sI2389
S'ladies'
p2390
sI2390
S'fortunately'
p2391
sI2391
S'burning'
p2392
sI2392
S'coupon'
p2393
sI2393
S'summary:'
p2394
sI2394
S'rome'
p2395
sI2395
S'pairings'
p2396
sI2396
S'artichokes'
p2397
sI2397
S'penelope'
p2398
sI2398
S'clams'
p2399
sI2399
S'lively'
p2400
sI2400
S'parties'
p2401
sI2401
S'uptown'
p2402
sI2402
S'alas'
p2403
sI2403
S'happening'
p2404
sI2404
S'your'
p2405
sI2405
S'upstairs'
p2406
sI2406
S'buds'
p2407
sI2407
S'breath'
p2408
sI2408
S'fill'
p2409
sI2409
S'her'
p2410
sI2410
S'area'
p2411
sI2411
S'\xc2\xa0even'
p2412
sI2412
S'strictly'
p2413
sI2413
S'there'
p2414
sI2414
S'hey'
p2415
sI2415
S'lol'
p2416
sI2416
S'meals'
p2417
sI2417
S'strip'
p2418
sI2418
S'start'
p2419
sI2419
S'poured'
p2420
sI2420
S'impromptu'
p2421
sI2421
S'low'
p2422
sI2422
S'stars'
p2423
sI2423
S'brazilian'
p2424
sI2424
S'slowly'
p2425
sI2425
S'exceptional'
p2426
sI2426
S'bubble'
p2427
sI2427
S"\xc2\xa0i'm"
p2428
sI2428
S'consists'
p2429
sI2429
S'shower'
p2430
sI2430
S'spicy'
p2431
sI2431
S"it'd"
p2432
sI2432
S'complete'
p2433
sI2433
S'enough'
p2434
sI2434
S'\xc2\xa0come'
p2435
sI2435
S'stupid'
p2436
sI2436
S'peaceful'
p2437
sI2437
S'co-worker'
p2438
sI2438
S'amongst'
p2439
sI2439
S'sophisticated'
p2440
sI2440
S'staples'
p2441
sI2441
S'bowls'
p2442
sI2442
S'omelet'
p2443
sI2443
S'upbeat'
p2444
sI2444
S'happier'
p2445
sI2445
S'trying'
p2446
sI2446
S'with'
p2447
sI2447
S'buying'
p2448
sI2448
S'spice'
p2449
sI2449
S'football'
p2450
sI2450
S"they're"
p2451
sI2451
S'rush'
p2452
sI2452
S'waste'
p2453
sI2453
S'romantic'
p2454
sI2454
S'5/5'
p2455
sI2455
S"wasn't"
p2456
sI2456
S'tripe'
p2457
sI2457
S'using'
p2458
sI2458
S'mary'
p2459
sI2459
S'strawberry'
p2460
sI2460
S'"it\'s'
p2461
sI2461
S'dirty'
p2462
sI2462
S'\xc2\xa0fantastic'
p2463
sI2463
S'ragu'
p2464
sI2464
S'freakin'
p2465
sI2465
S'blackened'
p2466
sI2466
S'agree'
p2467
sI2467
S'strongly'
p2468
sI2468
S'gone'
p2469
sI2469
S'ac'
p2470
sI2470
S'palate'
p2471
sI2471
S'words:'
p2472
sI2472
S'johnny'
p2473
sI2473
S'taste'
p2474
sI2474
S'certain'
p2475
sI2475
S'describe'
p2476
sI2476
S'am'
p2477
sI2477
S'al'
p2478
sI2478
S'deep'
p2479
sI2479
S'an'
p2480
sI2480
S'as'
p2481
sI2481
S'tasty'
p2482
sI2482
S'at'
p2483
sI2483
S'walks'
p2484
sI2484
S'girlfriend'
p2485
sI2485
S'watched'
p2486
sI2486
S'after-work'
p2487
sI2487
S'moves'
p2488
sI2488
S'cream'
p2489
sI2489
S'again'
p2490
sI2490
S'stumbled'
p2491
sI2491
S'dating'
p2492
sI2492
S'deserve'
p2493
sI2493
S'dudes'
p2494
sI2494
S'\xc2\xa0definitely'
p2495
sI2495
S'tight'
p2496
sI2496
S'brave'
p2497
sI2497
S'5'
p2498
sI2498
S'evenings'
p2499
sI2499
S'you'
p2500
sI2500
S'lemongrass'
p2501
sI2501
S'thousand'
p2502
sI2502
S'poor'
p2503
sI2503
S'requested'
p2504
sI2504
S'obsessed'
p2505
sI2505
S'separate'
p2506
sI2506
S'students'
p2507
sI2507
S'a+'
p2508
sI2508
S'pear'
p2509
sI2509
S'miriam'
p2510
sI2510
S'includes'
p2511
sI2511
S'\xc2\xa0let'
p2512
sI2512
S'herbs'
p2513
sI2513
S'lucali'
p2514
sI2514
S'important'
p2515
sI2515
S'peak'
p2516
sI2516
S"she's"
p2517
sI2517
S'included'
p2518
sI2518
S'decorated'
p2519
sI2519
S'freshness'
p2520
sI2520
S'alcohol'
p2521
sI2521
S'building'
p2522
sI2522
S'booked'
p2523
sI2523
S'calls'
p2524
sI2524
S'wife'
p2525
sI2525
S'trattoria'
p2526
sI2526
S"sheep's"
p2527
sI2527
S'\xc2\xa0have'
p2528
sI2528
S'photos'
p2529
sI2529
S'hello'
p2530
sI2530
S'calle'
p2531
sI2531
S'u'
p2532
sI2532
S'k-town'
p2533
sI2533
S'alright'
p2534
sI2534
S'elmhurst'
p2535
sI2535
S'platter'
p2536
sI2536
S'starting'
p2537
sI2537
S'original'
p2538
sI2538
S'all'
p2539
sI2539
S'surrounded'
p2540
sI2540
S'sicilian'
p2541
sI2541
S'forget'
p2542
sI2542
S'chinese'
p2543
sI2543
S':-'
p2544
sI2544
S'beware'
p2545
sI2545
S'lack'
p2546
sI2546
S'dollar'
p2547
sI2547
S'month'
p2548
sI2548
S"\xc2\xa0they're"
p2549
sI2549
S'thoughtful'
p2550
sI2550
S'\xc2\xa0highly'
p2551
sI2551
S'pregnant'
p2552
sI2552
S'taquitos'
p2553
sI2553
S'parmesan'
p2554
sI2554
S'dish'
p2555
sI2555
S'follow'
p2556
sI2556
S'\xc2\xa0since'
p2557
sI2557
S'pea'
p2558
sI2558
S'children'
p2559
sI2559
S'hmmm'
p2560
sI2560
S'asada'
p2561
sI2561
S'apartment'
p2562
sI2562
S'remarkable'
p2563
sI2563
S'everywhere'
p2564
sI2564
S'whoever'
p2565
sI2565
S'thursday'
p2566
sI2566
S'sashimi'
p2567
sI2567
S'to'
p2568
sI2568
S'tail'
p2569
sI2569
S'taim'
p2570
sI2570
S'dairy'
p2571
sI2571
S'present'
p2572
sI2572
S'skip'
p2573
sI2573
S'smile'
p2574
sI2574
S'enjoying'
p2575
sI2575
S'presentation'
p2576
sI2576
S'olea'
p2577
sI2577
S'paying'
p2578
sI2578
S'woman'
p2579
sI2579
S'returned'
p2580
sI2580
S'sitting'
p2581
sI2581
S'very'
p2582
sI2582
S'fitting'
p2583
sI2583
S'fav'
p2584
sI2584
S'fat'
p2585
sI2585
S'focus'
p2586
sI2586
S'ethiopian'
p2587
sI2587
S'aware'
p2588
sI2588
S'sons'
p2589
sI2589
S'fan'
p2590
sI2590
S'sweets'
p2591
sI2591
S'decide'
p2592
sI2592
S'surprise'
p2593
sI2593
S'awful'
p2594
sI2594
S'winning'
p2595
sI2595
S'difference'
p2596
sI2596
S'ramen'
p2597
sI2597
S'common'
p2598
sI2598
S'cookshop'
p2599
sI2599
S'pre'
p2600
sI2600
S'heaven'
p2601
sI2601
S'gf'
p2602
sI2602
S'--'
p2603
sI2603
S'posto'
p2604
sI2604
S'celebrity'
p2605
sI2605
S'list'
p2606
sI2606
S'burritos'
p2607
sI2607
S'large'
p2608
sI2608
S'dinosaur'
p2609
sI2609
S'prosciutto'
p2610
sI2610
S'skate'
p2611
sI2611
S'\xc2\xa0do'
p2612
sI2612
S'small'
p2613
sI2613
S'bench'
p2614
sI2614
S"i'll"
p2615
sI2615
S'cookies'
p2616
sI2616
S'homey'
p2617
sI2617
S'neighborhood'
p2618
sI2618
S'ten'
p2619
sI2619
S'tea'
p2620
sI2620
S'sloppy'
p2621
sI2621
S'streets'
p2622
sI2622
S'past'
p2623
sI2623
S'burger'
p2624
sI2624
S'rate'
p2625
sI2625
S'design'
p2626
sI2626
S'pass'
p2627
sI2627
S'further'
p2628
sI2628
S'pretentious'
p2629
sI2629
S'casual'
p2630
sI2630
S'ribbon'
p2631
sI2631
S'juice'
p2632
sI2632
S'cheeses'
p2633
sI2633
S'what'
p2634
sI2634
S'abc'
p2635
sI2635
S'stood'
p2636
sI2636
S'opted'
p2637
sI2637
S'sun'
p2638
sI2638
S'section'
p2639
sI2639
S'deliciousness'
p2640
sI2640
S'crust'
p2641
sI2641
S'anniversary'
p2642
sI2642
S'disclaimer:'
p2643
sI2643
S'18'
p2644
sI2644
S'version'
p2645
sI2645
S'leftovers'
p2646
sI2646
S'scallops'
p2647
sI2647
S'learned'
p2648
sI2648
S'public'
p2649
sI2649
S'full'
p2650
sI2650
S'hash'
p2651
sI2651
S'\xc2\xa0great'
p2652
sI2652
S'hungover'
p2653
sI2653
S'buddies'
p2654
sI2654
S'supposedly'
p2655
sI2655
S'hours'
p2656
sI2656
S'hubs'
p2657
sI2657
S'sardines'
p2658
sI2658
S'grape'
p2659
sI2659
S'november'
p2660
sI2660
S'strong'
p2661
sI2661
S'cambodian'
p2662
sI2662
S'personable'
p2663
sI2663
S'mmm'
p2664
sI2664
S'search'
p2665
sI2665
S'ultra'
p2666
sI2666
S'ahead'
p2667
sI2667
S'houses'
p2668
sI2668
S'grimaldi'
p2669
sI2669
S'vegetarian'
p2670
sI2670
S'turkish'
p2671
sI2671
S'exceptionally'
p2672
sI2672
S'experience'
p2673
sI2673
S'over-hyped'
p2674
sI2674
S'significantly'
p2675
sI2675
S'prior'
p2676
sI2676
S'amount'
p2677
sI2677
S'healthier'
p2678
sI2678
S'lasagna'
p2679
sI2679
S'cousins'
p2680
sI2680
S'pick'
p2681
sI2681
S'action'
p2682
sI2682
S"would've"
p2683
sI2683
S'narrow'
p2684
sI2684
S'options'
p2685
sI2685
S'fanatic'
p2686
sI2686
S'via'
p2687
sI2687
S"junior's"
p2688
sI2688
S'guacamole'
p2689
sI2689
S'family'
p2690
sI2690
S'suddenly'
p2691
sI2691
S'strolling'
p2692
sI2692
S'deals'
p2693
sI2693
S'minetta'
p2694
sI2694
S'rum'
p2695
sI2695
S'wifi'
p2696
sI2696
S'put'
p2697
sI2697
S'odeon'
p2698
sI2698
S'chunks'
p2699
sI2699
S'rican'
p2700
sI2700
S'gosh'
p2701
sI2701
S'select'
p2702
sI2702
S'munchies'
p2703
sI2703
S'eye'
p2704
sI2704
S'takes'
p2705
sI2705
S'culinary'
p2706
sI2706
S'intense'
p2707
sI2707
S'donuts'
p2708
sI2708
S'destination'
p2709
sI2709
S'determined'
p2710
sI2710
S'two'
p2711
sI2711
S'rustic'
p2712
sI2712
S'resident'
p2713
sI2713
S'gorgeous'
p2714
sI2714
S'taken'
p2715
sI2715
S'tag'
p2716
sI2716
S'minor'
p2717
sI2717
S'more'
p2718
sI2718
S'flat'
p2719
sI2719
S'insanely'
p2720
sI2720
S'door'
p2721
sI2721
S'knows'
p2722
sI2722
S'grabbing'
p2723
sI2723
S'company'
p2724
sI2724
S'flay'
p2725
sI2725
S'yuca'
p2726
sI2726
S'site'
p2727
sI2727
S'excuse'
p2728
sI2728
S'landed'
p2729
sI2729
S'gentleman'
p2730
sI2730
S"ain't"
p2731
sI2731
S'basically'
p2732
sI2732
S'broke'
p2733
sI2733
S'particular'
p2734
sI2734
S'known'
p2735
sI2735
S'mellow'
p2736
sI2736
S'flan'
p2737
sI2737
S'pleasing'
p2738
sI2738
S'glad'
p2739
sI2739
S'town'
p2740
sI2740
S'grill'
p2741
sI2741
S'none'
p2742
sI2742
S'include'
p2743
sI2743
S'hour'
p2744
sI2744
S'blah'
p2745
sI2745
S'recall'
p2746
sI2746
S'\xc2\xa0that'
p2747
sI2747
S'specializes'
p2748
sI2748
S'sucks'
p2749
sI2749
S"carmine's"
p2750
sI2750
S'sent'
p2751
sI2751
S'learn'
p2752
sI2752
S'knocked'
p2753
sI2753
S'male'
p2754
sI2754
S'england'
p2755
sI2755
S'scramble'
p2756
sI2756
S'def'
p2757
sI2757
S'history'
p2758
sI2758
S'beautiful'
p2759
sI2759
S'compare'
p2760
sI2760
S'atm'
p2761
sI2761
S'prompt'
p2762
sI2762
S'salted'
p2763
sI2763
S'stated'
p2764
sI2764
S'joints'
p2765
sI2765
S'share'
p2766
sI2766
S'staten'
p2767
sI2767
S'accept'
p2768
sI2768
S'wallet'
p2769
sI2769
S'states'
p2770
sI2770
S'minimum'
p2771
sI2771
S'salty'
p2772
sI2772
S'purchased'
p2773
sI2773
S'bucks'
p2774
sI2774
S'station'
p2775
sI2775
S'greenwich'
p2776
sI2776
S'dress'
p2777
sI2777
S'lucked'
p2778
sI2778
S'!'
p2779
sI2779
S'huge'
p2780
sI2780
S'needs'
p2781
sI2781
S'obnoxious'
p2782
sI2782
S'court'
p2783
sI2783
S'advantage'
p2784
sI2784
S'awkward'
p2785
sI2785
S'terribly'
p2786
sI2786
S'eataly'
p2787
sI2787
S'chops'
p2788
sI2788
S'comfort'
p2789
sI2789
S'thumbs'
p2790
sI2790
S'stayed'
p2791
sI2791
S'everyday'
p2792
sI2792
S'menus'
p2793
sI2793
S'glowing'
p2794
sI2794
S'occasionally'
p2795
sI2795
S'perry'
p2796
sI2796
S'freshly'
p2797
sI2797
S'"no'
p2798
sI2798
S'goat'
p2799
sI2799
S'shirts'
p2800
sI2800
S'simplicity'
p2801
sI2801
S'sandwich'
p2802
sI2802
S'okay'
p2803
sI2803
S'tried'
p2804
sI2804
S'rude'
p2805
sI2805
S'petite'
p2806
sI2806
S'suppose'
p2807
sI2807
S'advice'
p2808
sI2808
S'soda'
p2809
sI2809
S'pastas'
p2810
sI2810
S'frills'
p2811
sI2811
S'tries'
p2812
sI2812
S'plane'
p2813
sI2813
S'lighting'
p2814
sI2814
S'adventure'
p2815
sI2815
S'coming'
p2816
sI2816
S'backyard'
p2817
sI2817
S'\xc2\xa0plus'
p2818
sI2818
S'choice'
p2819
sI2819
S'authentic'
p2820
sI2820
S'satay'
p2821
sI2821
S'nonetheless'
p2822
sI2822
S'harsh'
p2823
sI2823
S'a'
p2824
sI2824
S'\xc2\xa0being'
p2825
sI2825
S'short'
p2826
sI2826
S'\xc2\xa0huge'
p2827
sI2827
S'deviled'
p2828
sI2828
S'crowded'
p2829
sI2829
S'onto'
p2830
sI2830
S'register'
p2831
sI2831
S'eats'
p2832
sI2832
S'anytime'
p2833
sI2833
S'4/5'
p2834
sI2834
S'marlow'
p2835
sI2835
S')'
p2836
sI2836
S'roommates'
p2837
sI2837
S'halibut'
p2838
sI2838
S'$20'
p2839
sI2839
S'menu:'
p2840
sI2840
S'pleasure'
p2841
sI2841
S'breads'
p2842
sI2842
S'egg'
p2843
sI2843
S'playing'
p2844
sI2844
S'patio'
p2845
sI2845
S"that's"
p2846
sI2846
S'volume'
p2847
sI2847
S'feed'
p2848
sI2848
S'wandered'
p2849
sI2849
S'mexican'
p2850
sI2850
S'help'
p2851
sI2851
S"don't"
p2852
sI2852
S'september'
p2853
sI2853
S'reminded'
p2854
sI2854
S'sooo'
p2855
sI2855
S'soon'
p2856
sI2856
S'mousse'
p2857
sI2857
S'telling'
p2858
sI2858
S'attitude'
p2859
sI2859
S'paper'
p2860
sI2860
S'through'
p2861
sI2861
S'same'
p2862
sI2862
S'signs'
p2863
sI2863
S'broadway'
p2864
sI2864
S'smiling'
p2865
sI2865
S'to-go'
p2866
sI2866
S'avenue'
p2867
sI2867
S'its'
p2868
sI2868
S'brie'
p2869
sI2869
S'24'
p2870
sI2870
S'25'
p2871
sI2871
S'style'
p2872
sI2872
S'20'
p2873
sI2873
S'21'
p2874
sI2874
S'alla'
p2875
sI2875
S'dozens'
p2876
sI2876
S'flea'
p2877
sI2877
S'actually'
p2878
sI2878
S'late'
p2879
sI2879
S'parts'
p2880
sI2880
S'attended'
p2881
sI2881
S'friendliest'
p2882
sI2882
S'macaroni'
p2883
sI2883
S'pesto'
p2884
sI2884
S'margarita'
p2885
sI2885
S'sauce'
p2886
sI2886
S"haven't"
p2887
sI2887
S'colleague'
p2888
sI2888
S'columbus'
p2889
sI2889
S'good'
p2890
sI2890
S'return'
p2891
sI2891
S'calm'
p2892
sI2892
S'nestled'
p2893
sI2893
S'seeking'
p2894
sI2894
S'food'
p2895
sI2895
S'sucker'
p2896
sI2896
S'unreal'
p2897
sI2897
S"wife's"
p2898
sI2898
S'wasabi'
p2899
sI2899
S'sit-down'
p2900
sI2900
S'underground'
p2901
sI2901
S'walls'
p2902
sI2902
S'it:'
p2903
sI2903
S"you've"
p2904
sI2904
S'\xc2\xa0all'
p2905
sI2905
S'foot'
p2906
sI2906
S'complain'
p2907
sI2907
S'bigger'
p2908
sI2908
S'sucked'
p2909
sI2909
S'easily'
p2910
sI2910
S'\xc2\xa0luckily'
p2911
sI2911
S'everytime'
p2912
sI2912
S'sundays'
p2913
sI2913
S'always'
p2914
sI2914
S'presented'
p2915
sI2915
S'spy'
p2916
sI2916
S'courses'
p2917
sI2917
S'legend'
p2918
sI2918
S'piping'
p2919
sI2919
S'stopped'
p2920
sI2920
S'hakata'
p2921
sI2921
S'turns'
p2922
sI2922
S'1am'
p2923
sI2923
S'found'
p2924
sI2924
S'biscuits'
p2925
sI2925
S'disorganized'
p2926
sI2926
S"isn't"
p2927
sI2927
S'referred'
p2928
sI2928
S'heavy'
p2929
sI2929
S'status'
p2930
sI2930
S'everyone'
p2931
sI2931
S'guests'
p2932
sI2932
S'delicious'
p2933
sI2933
S'weight'
p2934
sI2934
S'needless'
p2935
sI2935
S'house'
p2936
sI2936
S'fish'
p2937
sI2937
S'hard'
p2938
sI2938
S'idea'
p2939
sI2939
S'eve'
p2940
sI2940
S'oil'
p2941
sI2941
S'expect'
p2942
sI2942
S'beyond'
p2943
sI2943
S'event'
p2944
sI2944
S'really'
p2945
sI2945
S'specials'
p2946
sI2946
S'lovers'
p2947
sI2947
S'missed'
p2948
sI2948
S'wondered'
p2949
sI2949
S'p'
p2950
sI2950
S'4pm'
p2951
sI2951
S'since'
p2952
sI2952
S"nyc's"
p2953
sI2953
S'research'
p2954
sI2954
S'tiramisu'
p2955
sI2955
S'misses'
p2956
sI2956
S'yard'
p2957
sI2957
S'health'
p2958
sI2958
S'hill'
p2959
sI2959
S'7'
p2960
sI2960
S'paradise'
p2961
sI2961
S'print'
p2962
sI2962
S'issue'
p2963
sI2963
S'ass'
p2964
sI2964
S'bistro'
p2965
sI2965
S'definately'
p2966
sI2966
S'bass'
p2967
sI2967
S'dirt'
p2968
sI2968
S'calzone'
p2969
sI2969
S'friday'
p2970
sI2970
S'hosted'
p2971
sI2971
S'story'
p2972
sI2972
S'pub'
p2973
sI2973
S'pleasant'
p2974
sI2974
S'extraordinary'
p2975
sI2975
S'reason'
p2976
sI2976
S'base'
p2977
sI2977
S'cookie'
p2978
sI2978
S'members'
p2979
sI2979
S'imagine'
p2980
sI2980
S'ask'
p2981
sI2981
S'horse'
p2982
sI2982
S'beginning'
p2983
sI2983
S'sidewalk'
p2984
sI2984
S'bash'
p2985
sI2985
S'temperature'
p2986
sI2986
S'thrown'
p2987
sI2987
S'definition'
p2988
sI2988
S'owners'
p2989
sI2989
S'underwhelming'
p2990
sI2990
S"place's"
p2991
sI2991
S'terrible'
p2992
sI2992
S"year's"
p2993
sI2993
S'gourmet'
p2994
sI2994
S'american'
p2995
sI2995
S'edges'
p2996
sI2996
S'expecting'
p2997
sI2997
S'w'
p2998
sI2998
S'twenty'
p2999
sI2999
S'fallen'
p3000
sI3000
S'virgin'
p3001
sI3001
S'miso'
p3002
sI3002
S'dine'
p3003
sI3003
S'engagement'
p3004
sI3004
S'guac'
p3005
sI3005
S'dont'
p3006
sI3006
S'feel'
p3007
sI3007
S'beforehand'
p3008
sI3008
S'doughnuts'
p3009
sI3009
S'number'
p3010
sI3010
S'fancy'
p3011
sI3011
S'traveled'
p3012
sI3012
S'feet'
p3013
sI3013
S'mmmmm'
p3014
sI3014
S'talked'
p3015
sI3015
S'done'
p3016
sI3016
S'approximately'
p3017
sI3017
S'croissants'
p3018
sI3018
S'bland'
p3019
sI3019
S'cups'
p3020
sI3020
S'miss'
p3021
sI3021
S'maple'
p3022
sI3022
S'razor'
p3023
sI3023
S'guess'
p3024
sI3024
S'"'
p3025
sI3025
S"jacob's"
p3026
sI3026
S'guest'
p3027
sI3027
S'benedict'
p3028
sI3028
S'together'
p3029
sI3029
S'5th'
p3030
sI3030
S'brisket'
p3031
sI3031
S'moderately'
p3032
sI3032
S'comfy'
p3033
sI3033
S'least'
p3034
sI3034
S'scallion'
p3035
sI3035
S'trend'
p3036
sI3036
S'wonderful'
p3037
sI3037
S'passed'
p3038
sI3038
S'pomme'
p3039
sI3039
S'mama'
p3040
sI3040
S'master'
p3041
sI3041
S'majority'
p3042
sI3042
S'nuts'
p3043
sI3043
S'syrup'
p3044
sI3044
S'banana'
p3045
sI3045
S'store'
p3046
sI3046
S'listed'
p3047
sI3047
S'mini'
p3048
sI3048
S'selling'
p3049
sI3049
S'warmly'
p3050
sI3050
S'option'
p3051
sI3051
S'relationship'
p3052
sI3052
S'parm'
p3053
sI3053
S'hotel'
p3054
sI3054
S'park'
p3055
sI3055
S'immediate'
p3056
sI3056
S'required'
p3057
sI3057
S'mmmm'
p3058
sI3058
S'luckily'
p3059
sI3059
S'part'
p3060
sI3060
S'$8'
p3061
sI3061
S'$9'
p3062
sI3062
S'$6'
p3063
sI3063
S'theater'
p3064
sI3064
S'$4'
p3065
sI3065
S'believe'
p3066
sI3066
S'$2'
p3067
sI3067
S'$3'
p3068
sI3068
S'pants'
p3069
sI3069
S'$1'
p3070
sI3070
S'king'
p3071
sI3071
S'kind'
p3072
sI3072
S'grew'
p3073
sI3073
S'5-star'
p3074
sI3074
S"hell's"
p3075
sI3075
S'gotten'
p3076
sI3076
S'grey'
p3077
sI3077
S'spumoni'
p3078
sI3078
S'outrageous'
p3079
sI3079
S'i'
p3080
sI3080
S'bohemian'
p3081
sI3081
S'supposed'
p3082
sI3082
S'sole'
p3083
sI3083
S'outdoors'
p3084
sI3084
S'dang'
p3085
sI3085
S'stale'
p3086
sI3086
S'8:30'
p3087
sI3087
S'treated'
p3088
sI3088
S'shellfish'
p3089
sI3089
S'traveling'
p3090
sI3090
S'deciding'
p3091
sI3091
S'delectable'
p3092
sI3092
S'uncomfortable'
p3093
sI3093
S'coleslaw'
p3094
sI3094
S'outstanding'
p3095
sI3095
S'wasnt'
p3096
sI3096
S'antipasti'
p3097
sI3097
S'official'
p3098
sI3098
S'ages'
p3099
sI3099
S'juicy'
p3100
sI3100
S'decadent'
p3101
sI3101
S'roughly'
p3102
sI3102
S'randomly'
p3103
sI3103
S'service:'
p3104
sI3104
S'substantial'
p3105
sI3105
S'graffiti'
p3106
sI3106
S'tonkatsu'
p3107
sI3107
S'\xc2\xa0place'
p3108
sI3108
S'bourdain'
p3109
sI3109
S'aged'
p3110
sI3110
S'philly'
p3111
sI3111
S'orders'
p3112
sI3112
S'gathering'
p3113
sI3113
S'sell'
p3114
sI3114
S'ratings'
p3115
sI3115
S'nights'
p3116
sI3116
S'built'
p3117
sI3117
S'zero'
p3118
sI3118
S'lic'
p3119
sI3119
S'lil'
p3120
sI3120
S'odd'
p3121
sI3121
S'self'
p3122
sI3122
S'bff'
p3123
sI3123
S'lit'
p3124
sI3124
S'also'
p3125
sI3125
S'caesar'
p3126
sI3126
S'sandwiches'
p3127
sI3127
S'finding'
p3128
sI3128
S'becco'
p3129
sI3129
S'cornbread'
p3130
sI3130
S'play'
p3131
sI3131
S'experienced'
p3132
sI3132
S'eggs'
p3133
sI3133
S'sets'
p3134
sI3134
S'salmon'
p3135
sI3135
S'cosy'
p3136
sI3136
S'allergy'
p3137
sI3137
S'most'
p3138
sI3138
S'brooklyn'
p3139
sI3139
S'experiences'
p3140
sI3140
S'plan'
p3141
sI3141
S'eaten'
p3142
sI3142
S'nothing'
p3143
sI3143
S'adds'
p3144
sI3144
S'colombian'
p3145
sI3145
S'extremely'
p3146
sI3146
S'oyster'
p3147
sI3147
S'bumping'
p3148
sI3148
S'windows'
p3149
sI3149
S'zen'
p3150
sI3150
S'clear'
p3151
sI3151
S'sometimes'
p3152
sI3152
S'cover'
p3153
sI3153
S'gin'
p3154
sI3154
S"they'll"
p3155
sI3155
S'traditional'
p3156
sI3156
S'sticky'
p3157
sI3157
S'cramped'
p3158
sI3158
S'clean'
p3159
sI3159
S'lackluster'
p3160
sI3160
S'notch'
p3161
sI3161
S'blend'
p3162
sI3162
S'dragged'
p3163
sI3163
S'western'
p3164
sI3164
S'\xc2\xa0got'
p3165
sI3165
S'packs'
p3166
sI3166
S'ugh'
p3167
sI3167
S'particularly'
p3168
sI3168
S'amaze'
p3169
sI3169
S'gold'
p3170
sI3170
S'espresso'
p3171
sI3171
S'fond'
p3172
sI3172
S'moroccan'
p3173
sI3173
S'carne'
p3174
sI3174
S'burrata'
p3175
sI3175
S'swine'
p3176
sI3176
S'beyoglu'
p3177
sI3177
S'hyped'
p3178
sI3178
S'$7'
p3179
sI3179
S'carefully'
p3180
sI3180
S'se'
p3181
sI3181
S'franklin'
p3182
sI3182
S'fine'
p3183
sI3183
S'find'
p3184
sI3184
S'faces'
p3185
sI3185
S'current'
p3186
sI3186
S'giant'
p3187
sI3187
S'$5'
p3188
sI3188
S'deserts'
p3189
sI3189
S'northern'
p3190
sI3190
S'justice'
p3191
sI3191
S'convinced'
p3192
sI3192
S'ruin'
p3193
sI3193
S'heavily'
p3194
sI3194
S'gooey'
p3195
sI3195
S'starters'
p3196
sI3196
S'failed'
p3197
sI3197
S'flights'
p3198
sI3198
S'email'
p3199
sI3199
S'central'
p3200
sI3200
S'pretty'
p3201
sI3201
S'knowledgeable'
p3202
sI3202
S"ruby's"
p3203
sI3203
S'8'
p3204
sI3204
S'cuba'
p3205
sI3205
S'croque'
p3206
sI3206
S'accurate'
p3207
sI3207
S"mom's"
p3208
sI3208
S'5:30pm'
p3209
sI3209
S'hip'
p3210
sI3210
S'woodside'
p3211
sI3211
S'his'
p3212
sI3212
S'hit'
p3213
sI3213
S'albeit'
p3214
sI3214
S'bambino'
p3215
sI3215
S'express'
p3216
sI3216
S'sunny'
p3217
sI3217
S'grocery'
p3218
sI3218
S'cheaper'
p3219
sI3219
S'famous'
p3220
sI3220
S'feels'
p3221
sI3221
S'b'
p3222
sI3222
S'3/5'
p3223
sI3223
S'breast'
p3224
sI3224
S'basement'
p3225
sI3225
S'combinations'
p3226
sI3226
S'during'
p3227
sI3227
S'him'
p3228
sI3228
S'\xc2\xa0having'
p3229
sI3229
S'gallery'
p3230
sI3230
S'appeal'
p3231
sI3231
S'frankly'
p3232
sI3232
S'diamond'
p3233
sI3233
S'stroll'
p3234
sI3234
S'jeepney'
p3235
sI3235
S'chuko'
p3236
sI3236
S'caramel'
p3237
sI3237
S'paella'
p3238
sI3238
S'recommendations'
p3239
sI3239
S'hype'
p3240
sI3240
S'xixa'
p3241
sI3241
S'river'
p3242
sI3242
S'courteous'
p3243
sI3243
S'wrote'
p3244
sI3244
S'restaurants'
p3245
sI3245
S'insane'
p3246
sI3246
S'bars'
p3247
sI3247
S'set'
p3248
sI3248
S'art'
p3249
sI3249
S'dump'
p3250
sI3250
S'locale'
p3251
sI3251
S'advertised'
p3252
sI3252
S'uses'
p3253
sI3253
S'sex'
p3254
sI3254
S'culture'
p3255
sI3255
S'see'
p3256
sI3256
S'individual'
p3257
sI3257
S'bare'
p3258
sI3258
S'are'
p3259
sI3259
S'sea'
p3260
sI3260
S'tender'
p3261
sI3261
S'close'
p3262
sI3262
S'gouda'
p3263
sI3263
S'greece'
p3264
sI3264
S'schnitzel'
p3265
sI3265
S'locals'
p3266
sI3266
S'yelpers'
p3267
sI3267
S'success'
p3268
sI3268
S'empanada'
p3269
sI3269
S'creme'
p3270
sI3270
S'expert'
p3271
sI3271
S'visiting'
p3272
sI3272
S'pictures'
p3273
sI3273
S'wow'
p3274
sI3274
S'currently'
p3275
sI3275
S'please'
p3276
sI3276
S'fans'
p3277
sI3277
S'won'
p3278
sI3278
S'various'
p3279
sI3279
S'probably'
p3280
sI3280
S'burned'
p3281
sI3281
S'champagne'
p3282
sI3282
S'numerous'
p3283
sI3283
S'\xc2\xa0started'
p3284
sI3284
S'law'
p3285
sI3285
S'wide'
p3286
sI3286
S'available'
p3287
sI3287
S'solo'
p3288
sI3288
S'latin'
p3289
sI3289
S'recently'
p3290
sI3290
S'missing'
p3291
sI3291
S'gramercy'
p3292
sI3292
S'sold'
p3293
sI3293
S'attention'
p3294
sI3294
S'roe'
p3295
sI3295
S'raves'
p3296
sI3296
S'laduree'
p3297
sI3297
S'devoured'
p3298
sI3298
S'pull'
p3299
sI3299
S'dipped'
p3300
sI3300
S'tres'
p3301
sI3301
S'both'
p3302
sI3302
S'c'
p3303
sI3303
S'10th'
p3304
sI3304
S'last'
p3305
sI3305
S'hesitant'
p3306
sI3306
S'restaurant'
p3307
sI3307
S'fiance'
p3308
sI3308
S'solely'
p3309
sI3309
S"wouldn't"
p3310
sI3310
S'barely'
p3311
sI3311
S'fame'
p3312
sI3312
S'became'
p3313
sI3313
S'eggplant'
p3314
sI3314
S'rose'
p3315
sI3315
S'focused'
p3316
sI3316
S'whole'
p3317
sI3317
S'patty'
p3318
sI3318
S'subpar'
p3319
sI3319
S'liked'
p3320
sI3320
S'flavorless'
p3321
sI3321
S'fight'
p3322
sI3322
S'drunk'
p3323
sI3323
S'simple'
p3324
sI3324
S'sweet'
p3325
sI3325
S'\xc2\xa0which'
p3326
sI3326
S'whatever'
p3327
sI3327
S"hadn't"
p3328
sI3328
S'simply'
p3329
sI3329
S'likes'
p3330
sI3330
S'village'
p3331
sI3331
S'rave'
p3332
sI3332
S'\xc2\xa05'
p3333
sI3333
S'throughout'
p3334
sI3334
S'crispy'
p3335
sI3335
S'expensive'
p3336
sI3336
S'dinning'
p3337
sI3337
S'duh'
p3338
sI3338
S'described'
p3339
sI3339
S'service-'
p3340
sI3340
S'equivalent'
p3341
sI3341
S'create'
p3342
sI3342
S'creativity'
p3343
sI3343
S'due'
p3344
sI3344
S'appears'
p3345
sI3345
S'hitting'
p3346
sI3346
S'yasuda'
p3347
sI3347
S'secret'
p3348
sI3348
S'dropping'
p3349
sI3349
S'damn'
p3350
sI3350
S'\xc2\xa0everything'
p3351
sI3351
S'sakagura'
p3352
sI3352
S'peppers'
p3353
sI3353
S'\xc2\xa0last'
p3354
sI3354
S'brick'
p3355
sI3355
S'focaccia'
p3356
sI3356
S'meeting'
p3357
sI3357
S'whoa'
p3358
sI3358
S'empty'
p3359
sI3359
S'pm'
p3360
sI3360
S'firm'
p3361
sI3361
S'lived'
p3362
sI3362
S'flight'
p3363
sI3363
S'buck'
p3364
sI3364
S'fire'
p3365
sI3365
S'mind'
p3366
sI3366
S"what's"
p3367
sI3367
S'wet'
p3368
sI3368
S'frequenting'
p3369
sI3369
S'else'
p3370
sI3370
S'anthony'
p3371
sI3371
S'pricey'
p3372
sI3372
S'gal'
p3373
sI3373
S'lives'
p3374
sI3374
S'liver'
p3375
sI3375
S'prices'
p3376
sI3376
S'standout'
p3377
sI3377
S'wedding'
p3378
sI3378
S'exquisite'
p3379
sI3379
S'bruschetta'
p3380
sI3380
S'highest'
p3381
sI3381
S'peking'
p3382
sI3382
S'look'
p3383
sI3383
S'hostess'
p3384
sI3384
S'raw'
p3385
sI3385
S'solid'
p3386
sI3386
S'straight'
p3387
sI3387
S'tip'
p3388
sI3388
S'budget'
p3389
sI3389
S'sesame'
p3390
sI3390
S'brilliant'
p3391
sI3391
S'while'
p3392
sI3392
S'ropa'
p3393
sI3393
S'match'
p3394
sI3394
S'mimosas'
p3395
sI3395
S'fun'
p3396
sI3396
S'3am'
p3397
sI3397
S'guide'
p3398
sI3398
S'pack'
p3399
sI3399
S'eateries'
p3400
sI3400
S'larger'
p3401
sI3401
S'hoping'
p3402
sI3402
S'cents'
p3403
sI3403
S'salinas'
p3404
sI3404
S'xiao'
p3405
sI3405
S'encountered'
p3406
sI3406
S'disappointing'
p3407
sI3407
S'itself'
p3408
sI3408
S'mott'
p3409
sI3409
S'beautifully'
p3410
sI3410
S'ready'
p3411
sI3411
S'quail'
p3412
sI3412
S'rib'
p3413
sI3413
S'cuisine'
p3414
sI3414
S'decor'
p3415
sI3415
S'italy'
p3416
sI3416
S'anymore'
p3417
sI3417
S'\xc2\xa0-'
p3418
sI3418
S'improvement'
p3419
sI3419
S'butcher'
p3420
sI3420
S'experience:'
p3421
sI3421
S'shorter'
p3422
sI3422
S'sliders'
p3423
sI3423
S'chives'
p3424
sI3424
S'grand'
p3425
sI3425
S'9'
p3426
sI3426
S'\xc2\xa0yes'
p3427
sI3427
S'dozen'
p3428
sI3428
S'yucca'
p3429
sI3429
S"weren't"
p3430
sI3430
S'used'
p3431
sI3431
S'fatty'
p3432
sI3432
S'lie'
p3433
sI3433
S'bonus'
p3434
sI3434
S'du'
p3435
sI3435
S'pomegranate'
p3436
sI3436
S'buckwheat'
p3437
sI3437
S'yesterday'
p3438
sI3438
S'holidays'
p3439
sI3439
S'moment'
p3440
sI3440
S'\xc2\xa0excellent'
p3441
sI3441
S'arrived'
p3442
sI3442
S'stools'
p3443
sI3443
S'infused'
p3444
sI3444
S'assortment'
p3445
sI3445
S'brussels'
p3446
sI3446
S'conveniently'
p3447
sI3447
S'infamous'
p3448
sI3448
S'recent'
p3449
sI3449
S'early'
p3450
sI3450
S'lower'
p3451
sI3451
S'noodle'
p3452
sI3452
S'picky'
p3453
sI3453
S'older'
p3454
sI3454
S'rules'
p3455
sI3455
S'hagi'
p3456
sI3456
S'depending'
p3457
sI3457
S'spent'
p3458
sI3458
S'county'
p3459
sI3459
S'obviously'
p3460
sI3460
S'landmarc'
p3461
sI3461
S'person'
p3462
sI3462
S'\xc2\xa0came'
p3463
sI3463
S'edge'
p3464
sI3464
S'convenient'
p3465
sI3465
S'y'
p3466
sI3466
S'entry'
p3467
sI3467
S'breakfast/brunch'
p3468
sI3468
S'genuinely'
p3469
sI3469
S'spend'
p3470
sI3470
S'cous'
p3471
sI3471
S'20-30'
p3472
sI3472
S'cuisines'
p3473
sI3473
S'\xc2\xa0one'
p3474
sI3474
S'cheddar'
p3475
sI3475
S'reviewed'
p3476
sI3476
S'product'
p3477
sI3477
S'press'
p3478
sI3478
S'\xc2\xa0these'
p3479
sI3479
S'\xc2\xa0both'
p3480
sI3480
S'questions'
p3481
sI3481
S'roasted'
p3482
sI3482
S'buzzing'
p3483
sI3483
S'reviewer'
p3484
sI3484
S'alternative'
p3485
sI3485
S'prince'
p3486
sI3486
S'hotpot'
p3487
sI3487
S'tables'
p3488
sI3488
S'cut'
p3489
sI3489
S'helping'
p3490
sI3490
S'$'
p3491
sI3491
S'cup'
p3492
sI3492
S'fiancee'
p3493
sI3493
S'lady'
p3494
sI3494
S'workers'
p3495
sI3495
S'guaranteed'
p3496
sI3496
S'cuz'
p3497
sI3497
S'snag'
p3498
sI3498
S'eager'
p3499
sI3499
S'grapefruit'
p3500
sI3500
S'parents'
p3501
sI3501
S'location'
p3502
sI3502
S'soooooo'
p3503
sI3503
S'shoestring'
p3504
sI3504
S'desk'
p3505
sI3505
S'easter'
p3506
sI3506
S'excited'
p3507
sI3507
S'surprised'
p3508
sI3508
S'ridiculously'
p3509
sI3509
S'customers'
p3510
sI3510
S'trekked'
p3511
sI3511
S'march'
p3512
sI3512
S'lacking'
p3513
sI3513
S'rigatoni'
p3514
sI3514
S'queso'
p3515
sI3515
S'big'
p3516
sI3516
S'couple'
p3517
sI3517
S'gripe'
p3518
sI3518
S'unlimited'
p3519
sI3519
S'shitty'
p3520
sI3520
S'game'
p3521
sI3521
S'quest'
p3522
sI3522
S'apt'
p3523
sI3523
S'reliable'
p3524
sI3524
S'necessary'
p3525
sI3525
S'bit'
p3526
sI3526
S'wings'
p3527
sI3527
S"macy's"
p3528
sI3528
S'like'
p3529
sI3529
S'\xc2\xa0this'
p3530
sI3530
S'skeptical'
p3531
sI3531
S'promising'
p3532
sI3532
S'inviting'
p3533
sI3533
S'admittedly'
p3534
sI3534
S'da'
p3535
sI3535
S'clay'
p3536
sI3536
S'shabu'
p3537
sI3537
S'\xc2\xa0he'
p3538
sI3538
S'ignore'
p3539
sI3539
S'miami'
p3540
sI3540
S'continue'
p3541
sI3541
S'yorker'
p3542
sI3542
S'update:'
p3543
sI3543
S'popular'
p3544
sI3544
S'stylish'
p3545
sI3545
S'zucchini'
p3546
sI3546
S'sub-par'
p3547
sI3547
S'highline'
p3548
sI3548
S'google'
p3549
sI3549
S'partying'
p3550
sI3550
S'often'
p3551
sI3551
S'spotty'
p3552
sI3552
S'absolutely'
p3553
sI3553
S'spring'
p3554
sI3554
S'fake'
p3555
sI3555
S'some'
p3556
sI3556
S'back'
p3557
sI3557
S'phone'
p3558
sI3558
S'greeting'
p3559
sI3559
S'ah'
p3560
sI3560
S'understood'
p3561
sI3561
S'hassle'
p3562
sI3562
S'added'
p3563
sI3563
S'mighty'
p3564
sI3564
S'pricing'
p3565
sI3565
S'sight'
p3566
sI3566
S'falafel'
p3567
sI3567
S'curious'
p3568
sI3568
S'yerba'
p3569
sI3569
S'oddly'
p3570
sI3570
S'ourselves'
p3571
sI3571
S'sauces'
p3572
sI3572
S'delivered'
p3573
sI3573
S'and/or'
p3574
sI3574
S'\xc2\xa0and'
p3575
sI3575
S'\xc2\xa0such'
p3576
sI3576
S'cutlet'
p3577
sI3577
S'boasts'
p3578
sI3578
S'good:'
p3579
sI3579
S'good;'
p3580
sI3580
S'pros'
p3581
sI3581
S'excitement'
p3582
sI3582
S'per'
p3583
sI3583
S'\xc2\xa0absolutely'
p3584
sI3584
S'retro'
p3585
sI3585
S'tends'
p3586
sI3586
S'\xc2\xa0amazing'
p3587
sI3587
S'epic'
p3588
sI3588
S'eater'
p3589
sI3589
S'minimal'
p3590
sI3590
S'thighs'
p3591
sI3591
S'be'
p3592
sI3592
S'bf'
p3593
sI3593
S'run'
p3594
sI3594
S'bc'
p3595
sI3595
S'remembered'
p3596
sI3596
S'bo'
p3597
sI3597
S'fara'
p3598
sI3598
S'fed'
p3599
sI3599
S'bk'
p3600
sI3600
S'feelings'
p3601
sI3601
S'step'
p3602
sI3602
S'stew'
p3603
sI3603
S'chick'
p3604
sI3604
S'santo'
p3605
sI3605
S'crap'
p3606
sI3606
S'major'
p3607
sI3607
S'raspberry'
p3608
sI3608
S'smothered'
p3609
sI3609
S'by'
p3610
sI3610
S'waters'
p3611
sI3611
S'goods'
p3612
sI3612
S'anything'
p3613
sI3613
S'brioche'
p3614
sI3614
S'delish'
p3615
sI3615
S'75'
p3616
sI3616
S'graduation'
p3617
sI3617
S'\xc2\xa0after'
p3618
sI3618
S'deserves'
p3619
sI3619
S'range'
p3620
sI3620
S'pains'
p3621
sI3621
S'beans'
p3622
sI3622
S'charm'
p3623
sI3623
S'bouley'
p3624
sI3624
S'complimentary'
p3625
sI3625
S'wanna'
p3626
sI3626
S'go-to'
p3627
sI3627
S'block'
p3628
sI3628
S'flying'
p3629
sI3629
S'ppl'
p3630
sI3630
S'seeing'
p3631
sI3631
S'hudson'
p3632
sI3632
S'clinton'
p3633
sI3633
S'significant'
p3634
sI3634
S'ethnic'
p3635
sI3635
S'plethora'
p3636
sI3636
S'dude'
p3637
sI3637
S'into'
p3638
sI3638
S'within'
p3639
sI3639
S'tofu'
p3640
sI3640
S'servers'
p3641
sI3641
S'services'
p3642
sI3642
S'appropriate'
p3643
sI3643
S'selected'
p3644
sI3644
S'primarily'
p3645
sI3645
S'returning'
p3646
sI3646
S'sized'
p3647
sI3647
S'france'
p3648
sI3648
S'rolls'
p3649
sI3649
S'smells'
p3650
sI3650
S'impressed'
p3651
sI3651
S'canai'
p3652
sI3652
S'tasting'
p3653
sI3653
S'spending'
p3654
sI3654
S'ew'
p3655
sI3655
S'inedible'
p3656
sI3656
S'question'
p3657
sI3657
S'fast'
p3658
sI3658
S'\xc2\xa0though'
p3659
sI3659
S'pushy'
p3660
sI3660
S'akamaru'
p3661
sI3661
S'addicting'
p3662
sI3662
S"we're"
p3663
sI3663
S'homemade'
p3664
sI3664
S'forward'
p3665
sI3665
S':'
p3666
sI3666
S'opens'
p3667
sI3667
S"\xc2\xa0that's"
p3668
sI3668
S"\xc2\xa0i'll"
p3669
sI3669
S'himself'
p3670
sI3670
S'elsewhere'
p3671
sI3671
S'hawaiian'
p3672
sI3672
S'filet'
p3673
sI3673
S'downstairs'
p3674
sI3674
S'skewers'
p3675
sI3675
S'relaxed'
p3676
sI3676
S"chavela's"
p3677
sI3677
S'buttery'
p3678
sI3678
S'specialty'
p3679
sI3679
S'girlfriends'
p3680
sI3680
S'hoped'
p3681
sI3681
S'boys'
p3682
sI3682
S'mulberry'
p3683
sI3683
S'state'
p3684
sI3684
S"isabella's"
p3685
sI3685
S'tvs'
p3686
sI3686
S'fishy'
p3687
sI3687
S'this:'
p3688
sI3688
S'hopes'
p3689
sI3689
S'episode'
p3690
sI3690
S'line'
p3691
sI3691
S'outpost'
p3692
sI3692
S'posted'
p3693
sI3693
S'12pm'
p3694
sI3694
S'thru'
p3695
sI3695
S'humid'
p3696
sI3696
S'tia'
p3697
sI3697
S'stumbling'
p3698
sI3698
S'fries'
p3699
sI3699
S"hasn't"
p3700
sI3700
S'us'
p3701
sI3701
S'par'
p3702
sI3702
S'um'
p3703
sI3703
S'paired'
p3704
sI3704
S'sum'
p3705
sI3705
S'highlight'
p3706
sI3706
S'fried'
p3707
sI3707
S'chelsea'
p3708
sI3708
S'called'
p3709
sI3709
S'yakitori'
p3710
sI3710
S'uber'
p3711
sI3711
S'baba'
p3712
sI3712
S'popularity'
p3713
sI3713
S'ordered'
p3714
sI3714
S'adults'
p3715
sI3715
S'verlaine'
p3716
sI3716
S'starbucks'
p3717
sI3717
S'package'
p3718
sI3718
S'char'
p3719
sI3719
S'single'
p3720
sI3720
S'diverse'
p3721
sI3721
S'crepes'
p3722
sI3722
S'cafe'
p3723
sI3723
S'empire'
p3724
sI3724
S'indoors'
p3725
sI3725
S'container'
p3726
sI3726
S'disappoints'
p3727
sI3727
S'rainy'
p3728
sI3728
S'peter'
p3729
sI3729
S'lemon'
p3730
sI3730
S'caracas'
p3731
sI3731
S'peach'
p3732
sI3732
S'10am'
p3733
sI3733
S'amounts'
p3734
sI3734
S'nam'
p3735
sI3735
S'afford'
p3736
sI3736
S'-the'
p3737
sI3737
S'reputation'
p3738
sI3738
S'statement'
p3739
sI3739
S'department'
p3740
sI3740
S'b/c'
p3741
sI3741
S'manhattan'
p3742
sI3742
S'nice'
p3743
sI3743
S'draw'
p3744
sI3744
S'cellar'
p3745
sI3745
S'mustard'
p3746
sI3746
S'gross'
p3747
sI3747
S'favourite'
p3748
sI3748
S'\xc2\xa0while'
p3749
sI3749
S'understatement'
p3750
sI3750
S'problems'
p3751
sI3751
S'visits'
p3752
sI3752
S'prepared'
p3753
sI3753
S'bianca'
p3754
sI3754
S'quinoa'
p3755
sI3755
S'meaning'
p3756
sI3756
S'cater'
p3757
sI3757
S'utterly'
p3758
sI3758
S'metal'
p3759
sI3759
S'reservation'
p3760
sI3760
S'formal'
p3761
sI3761
S'score'
p3762
sI3762
S'sides'
p3763
sI3763
S'tummy'
p3764
sI3764
S'ago'
p3765
sI3765
S'wonton'
p3766
sI3766
S'land'
p3767
sI3767
S'e'
p3768
sI3768
S'\xc2\xa0been'
p3769
sI3769
S'practically'
p3770
sI3770
S'ending'
p3771
sI3771
S'age'
p3772
sI3772
S'strolled'
p3773
sI3773
S'walked'
p3774
sI3774
S'annoyed'
p3775
sI3775
S'cooked'
p3776
sI3776
S'beverage'
p3777
sI3777
S'drew'
p3778
sI3778
S'far'
p3779
sI3779
S'fresh'
p3780
sI3780
S'2008'
p3781
sI3781
S'2009'
p3782
sI3782
S'buffalo'
p3783
sI3783
S'having'
p3784
sI3784
S'once'
p3785
sI3785
S'epitome'
p3786
sI3786
S'ashamed'
p3787
sI3787
S'melts'
p3788
sI3788
S'hint'
p3789
sI3789
S'produce'
p3790
sI3790
S'enjoyable'
p3791
sI3791
S'desserts'
p3792
sI3792
S'chowder'
p3793
sI3793
S'accepted'
p3794
sI3794
S'liquor'
p3795
sI3795
S'4am'
p3796
sI3796
S'go'
p3797
sI3797
S'barbecue'
p3798
sI3798
S'issues'
p3799
sI3799
S'seemed'
p3800
sI3800
S'\xc2\xa0it'
p3801
sI3801
S'note:'
p3802
sI3802
S'\xc2\xa0is'
p3803
sI3803
S'vietnamese'
p3804
sI3804
S'peanut'
p3805
sI3805
S'concerned'
p3806
sI3806
S'shanghai'
p3807
sI3807
S'young'
p3808
sI3808
S'send'
p3809
sI3809
S'shack'
p3810
sI3810
S'\xc2\xa0if'
p3811
sI3811
S'starter'
p3812
sI3812
S'ambience'
p3813
sI3813
S'passion'
p3814
sI3814
S'dislike'
p3815
sI3815
S'\xc2\xa0in'
p3816
sI3816
S'friendly'
p3817
sI3817
S'waiters'
p3818
sI3818
S'ingredient'
p3819
sI3819
S'11:30'
p3820
sI3820
S'attempts'
p3821
sI3821
S'wished'
p3822
sI3822
S'garden'
p3823
sI3823
S'dessert'
p3824
sI3824
S'continues'
p3825
sI3825
S'\xc2\xa0why'
p3826
sI3826
S'spoon'
p3827
sI3827
S'putting'
p3828
sI3828
S'boozy'
p3829
sI3829
S'macaron'
p3830
sI3830
S'\xc2\xa0when'
p3831
sI3831
S'drinking'
p3832
sI3832
S'mild'
p3833
sI3833
S'korea'
p3834
sI3834
S'edible'
p3835
sI3835
S'entire'
p3836
sI3836
S'staffs'
p3837
sI3837
S'magic'
p3838
sI3838
S'grimaldis'
p3839
sI3839
S'asparagus'
p3840
sI3840
S'experiencing'
p3841
sI3841
S'array'
p3842
sI3842
S'f'
p3843
sI3843
S'michael'
p3844
sI3844
S"they've"
p3845
sI3845
S'fettuccine'
p3846
sI3846
S'try'
p3847
sI3847
S'skipped'
p3848
sI3848
S'chandelier'
p3849
sI3849
S'bxl'
p3850
sI3850
S'car'
p3851
sI3851
S'havent'
p3852
sI3852
S'polenta'
p3853
sI3853
S'noted'
p3854
sI3854
S'related'
p3855
sI3855
S'top-notch'
p3856
sI3856
S'place:'
p3857
sI3857
S'smaller'
p3858
sI3858
S"you'd"
p3859
sI3859
S'goodies'
p3860
sI3860
S'bogota'
p3861
sI3861
S'decor:'
p3862
sI3862
S'warmer'
p3863
sI3863
S'mediterranean'
p3864
sI3864
S'ocho'
p3865
sI3865
S'jump'
p3866
sI3866
S'hirata'
p3867
sI3867
S'blowing'
p3868
sI3868
S'booth'
p3869
sI3869
S'picked'
p3870
sI3870
S'subtle'
p3871
sI3871
S'spaghetti'
p3872
sI3872
S'ues'
p3873
sI3873
S'sausage'
p3874
sI3874
S'power'
p3875
sI3875
S'chicago'
p3876
sI3876
S'giving'
p3877
sI3877
S'tuesdays'
p3878
sI3878
S'tahini'
p3879
sI3879
S"mark's"
p3880
sI3880
S'sangria'
p3881
sI3881
S'overwhelmed'
p3882
sI3882
S'consistently'
p3883
sI3883
S'waiting'
p3884
sI3884
S'indian'
p3885
sI3885
S'fiori'
p3886
sI3886
S'fritters'
p3887
sI3887
S';'
p3888
sI3888
S"hanco's"
p3889
sI3889
S'bird'
p3890
sI3890
S'ambiance:'
p3891
sI3891
S'body'
p3892
sI3892
S'led'
p3893
sI3893
S'cozy'
p3894
sI3894
S'degree'
p3895
sI3895
S'leg'
p3896
sI3896
S'kangaroo'
p3897
sI3897
S'gluten-free'
p3898
sI3898
S'growing'
p3899
sI3899
S'explore'
p3900
sI3900
S'les'
p3901
sI3901
S'let'
p3902
sI3902
S'pancake'
p3903
sI3903
S'others'
p3904
sI3904
S'sexy'
p3905
sI3905
S'roof'
p3906
sI3906
S'\xc2\xa0there'
p3907
sI3907
S'extreme'
p3908
sI3908
S"we'll"
p3909
sI3909
S'great'
p3910
sI3910
S'nevertheless'
p3911
sI3911
S'receive'
p3912
sI3912
S'pickle'
p3913
sI3913
S'30'
p3914
sI3914
S'spiced'
p3915
sI3915
S'iced'
p3916
sI3916
S'35'
p3917
sI3917
S'leaving'
p3918
sI3918
S'products'
p3919
sI3919
S'weekday'
p3920
sI3920
S'nervous'
p3921
sI3921
S'popcorn'
p3922
sI3922
S'opinion'
p3923
sI3923
S'chang'
p3924
sI3924
S'spices'
p3925
sI3925
S'makes'
p3926
sI3926
S'explain'
p3927
sI3927
S'thats'
p3928
sI3928
S'marc'
p3929
sI3929
S'named'
p3930
sI3930
S'ladur\xc3\xa9e'
p3931
sI3931
S'apple'
p3932
sI3932
S'claim'
p3933
sI3933
S'win'
p3934
sI3934
S'app'
p3935
sI3935
S'manage'
p3936
sI3936
S'dedicated'
p3937
sI3937
S'private'
p3938
sI3938
S'towners'
p3939
sI3939
S'names'
p3940
sI3940
S'\xc2\xa0chicken'
p3941
sI3941
S'duck'
p3942
sI3942
S'reserved'
p3943
sI3943
S'chilly'
p3944
sI3944
S'brindle'
p3945
sI3945
S'staple'
p3946
sI3946
S'lime'
p3947
sI3947
S'\xc2\xa0food'
p3948
sI3948
S'cha'
p3949
sI3949
S'use'
p3950
sI3950
S'fee'
p3951
sI3951
S'from'
p3952
sI3952
S'thirsty'
p3953
sI3953
S'usa'
p3954
sI3954
S'&'
p3955
sI3955
S'remains'
p3956
sI3956
S'snacks'
p3957
sI3957
S'fuck'
p3958
sI3958
S'seamless'
p3959
sI3959
S'next'
p3960
sI3960
S'few'
p3961
sI3961
S'doubt'
p3962
sI3962
S'ranks'
p3963
sI3963
S'crab'
p3964
sI3964
S'food"'
p3965
sI3965
S'bottomless'
p3966
sI3966
S'themselves'
p3967
sI3967
S'\xc2\xa0small'
p3968
sI3968
S'oily'
p3969
sI3969
S'belgian'
p3970
sI3970
S'sort'
p3971
sI3971
S'popped'
p3972
sI3972
S'1/2'
p3973
sI3973
S'comparison'
p3974
sI3974
S'started'
p3975
sI3975
S'carroll'
p3976
sI3976
S'lounge'
p3977
sI3977
S'factor'
p3978
sI3978
S'impress'
p3979
sI3979
S'about'
p3980
sI3980
S'astoria'
p3981
sI3981
S'charming'
p3982
sI3982
S'train'
p3983
sI3983
S'rabbit'
p3984
sI3984
S'baby'
p3985
sI3985
S'\xc2\xa0very'
p3986
sI3986
S'inattentive'
p3987
sI3987
S'traif'
p3988
sI3988
S'iii'
p3989
sI3989
S'adequate'
p3990
sI3990
S'broth'
p3991
sI3991
S'women'
p3992
sI3992
S'customer'
p3993
sI3993
S'tad'
p3994
sI3994
S'account'
p3995
sI3995
S'balls'
p3996
sI3996
S'salad'
p3997
sI3997
S'7pm'
p3998
sI3998
S'this'
p3999
sI3999
S'ride'
p4000
sI4000
S'when'
p4001
sI4001
S'compliment'
p4002
sI4002
S'pour'
p4003
sI4003
S'\xc2\xa0brunch'
p4004
sI4004
S'gyros'
p4005
sI4005
S'anywhere'
p4006
sI4006
S'obvious'
p4007
sI4007
S'thin'
p4008
sI4008
S'praise'
p4009
sI4009
S'of'
p4010
sI4010
S'industrial'
p4011
sI4011
S'meet'
p4012
sI4012
S'closing'
p4013
sI4013
S'didnt'
p4014
sI4014
S'$22'
p4015
sI4015
S'dropped'
p4016
sI4016
S'control'
p4017
sI4017
S'pappardelle'
p4018
sI4018
S'tap'
p4019
sI4019
S'patron'
p4020
sI4020
S'plate'
p4021
sI4021
S'process'
p4022
sI4022
S'quesadillas'
p4023
sI4023
S'matinee'
p4024
sI4024
S'tax'
p4025
sI4025
S'dripping'
p4026
sI4026
S'pieces'
p4027
sI4027
S'high'
p4028
sI4028
S'blvd'
p4029
sI4029
S'carrot'
p4030
sI4030
S'hilton'
p4031
sI4031
S'something'
p4032
sI4032
S'bones'
p4033
sI4033
S'bistango'
p4034
sI4034
S'parisian'
p4035
sI4035
S'$25'
p4036
sI4036
S'onions'
p4037
sI4037
S'tai'
p4038
sI4038
S'native'
p4039
sI4039
S'lamb'
p4040
sI4040
S'nyonya'
p4041
sI4041
S'paleo'
p4042
sI4042
S'united'
p4043
sI4043
S'varied'
p4044
sI4044
S'siu'
p4045
sI4045
S'sit'
p4046
sI4046
S'vibe'
p4047
sI4047
S'skirt'
p4048
sI4048
S'six'
p4049
sI4049
S'williamsburg'
p4050
sI4050
S"mamoun's"
p4051
sI4051
S'fortunate'
p4052
sI4052
S'\xc2\xa0ordered'
p4053
sI4053
S'located'
p4054
sI4054
S'pair'
p4055
sI4055
S'forest'
p4056
sI4056
S'feta'
p4057
sI4057
S'instead'
p4058
sI4058
S'establishment'
p4059
sI4059
S'greatly'
p4060
sI4060
S'fare'
p4061
sI4061
S'sis'
p4062
sI4062
S'entree'
p4063
sI4063
S'blocks'
p4064
sI4064
S'hesitate'
p4065
sI4065
S'waitstaff'
p4066
sI4066
S'watch'
p4067
sI4067
S'\xc2\xa0pretty'
p4068
sI4068
S'chow'
p4069
sI4069
S'collection'
p4070
sI4070
S'dc'
p4071
sI4071
S'chive'
p4072
sI4072
S'sip'
p4073
sI4073
S'taco'
p4074
sI4074
S'fits'
p4075
sI4075
S'tastebuds'
p4076
sI4076
S'marrow'
p4077
sI4077
S'coast'
p4078
sI4078
S'upstate'
p4079
sI4079
S'tomato'
p4080
sI4080
S'realized'
p4081
sI4081
S'purely'
p4082
sI4082
S'poached'
p4083
sI4083
S"they'd"
p4084
sI4084
S'levels'
p4085
sI4085
S'light'
p4086
sI4086
S'counter'
p4087
sI4087
S'lines'
p4088
sI4088
S'dinners'
p4089
sI4089
S'bakery'
p4090
sI4090
S'honestly'
p4091
sI4091
S'$26'
p4092
sI4092
S'allow'
p4093
sI4093
S'classy'
p4094
sI4094
S'batter'
p4095
sI4095
S'addiction'
p4096
sI4096
S'lined'
p4097
sI4097
S'martini'
p4098
sI4098
S'bartenders'
p4099
sI4099
S'longest'
p4100
sI4100
S'houston'
p4101
sI4101
S'holds'
p4102
sI4102
S'soggy'
p4103
sI4103
S'areas'
p4104
sI4104
S'move'
p4105
sI4105
S'salivating'
p4106
sI4106
S'balanced'
p4107
sI4107
S'knowledgable'
p4108
sI4108
S'whilst'
p4109
sI4109
S'mojito'
p4110
sI4110
S'including'
p4111
sI4111
S'artichoke'
p4112
sI4112
S'poutine'
p4113
sI4113
S'mentioned'
p4114
sI4114
S'locanda'
p4115
sI4115
S'butternut'
p4116
sI4116
S'bunch'
p4117
sI4117
S'perfect'
p4118
sI4118
S'write'
p4119
sI4119
S'le'
p4120
sI4120
S'lb'
p4121
sI4121
S'la'
p4122
sI4122
S'chosen'
p4123
sI4123
S'lo'
p4124
sI4124
S'kickshaw'
p4125
sI4125
S'labor'
p4126
sI4126
S'willing'
p4127
sI4127
S'degrees'
p4128
sI4128
S'choose'
p4129
sI4129
S'orange'
p4130
sI4130
S'ricotta'
p4131
sI4131
S'holiday'
p4132
sI4132
S'crowds'
p4133
sI4133
S'2010'
p4134
sI4134
S'2013'
p4135
sI4135
S'2012'
p4136
sI4136
S'dad'
p4137
sI4137
S'empanadas'
p4138
sI4138
S'fourth'
p4139
sI4139
S'flour'
p4140
sI4140
S'dan'
p4141
sI4141
S'crammed'
p4142
sI4142
S'swordfish'
p4143
sI4143
S'accomodating'
p4144
sI4144
S'mention'
p4145
sI4145
S'bcd'
p4146
sI4146
S'legendary'
p4147
sI4147
S'hands'
p4148
sI4148
S'front'
p4149
sI4149
S"vanessa's"
p4150
sI4150
S'boqueria'
p4151
sI4151
S'day'
p4152
sI4152
S'tartine'
p4153
sI4153
S'10pm'
p4154
sI4154
S'enchiladas'
p4155
sI4155
S'risotto'
p4156
sI4156
S'warned'
p4157
sI4157
S'closes'
p4158
sI4158
S'feast'
p4159
sI4159
S'parole'
p4160
sI4160
S'storefront'
p4161
sI4161
S'delightful'
p4162
sI4162
S'doesnt'
p4163
sI4163
S'hanger'
p4164
sI4164
S'trap'
p4165
sI4165
S'\xc2\xa0although'
p4166
sI4166
S'frittata'
p4167
sI4167
S'accompanied'
p4168
sI4168
S'osteria'
p4169
sI4169
S'pint'
p4170
sI4170
S'tray'
p4171
sI4171
S'glasses'
p4172
sI4172
S'watery'
p4173
sI4173
S"lombardi's"
p4174
sI4174
S'tip:'
p4175
sI4175
S'doing'
p4176
sI4176
S'buena'
p4177
sI4177
S'dreaming'
p4178
sI4178
S'ambiance'
p4179
sI4179
S'unbelievable'
p4180
sI4180
S'macaroons'
p4181
sI4181
S'wind'
p4182
sI4182
S'books'
p4183
sI4183
S'exceeded'
p4184
sI4184
S'our'
p4185
sI4185
S'lentil'
p4186
sI4186
S'wander'
p4187
sI4187
S'special'
p4188
sI4188
S'out'
p4189
sI4189
S'category'
p4190
sI4190
S'$14'
p4191
sI4191
S'following:'
p4192
sI4192
S"'"
p4193
sI4193
S'bag'
p4194
sI4194
S'res'
p4195
sI4195
S'desert'
p4196
sI4196
S'yup'
p4197
sI4197
S'chaos'
p4198
sI4198
S'mere'
p4199
sI4199
S'farm'
p4200
sI4200
S'ssam'
p4201
sI4201
S'wraps'
p4202
sI4202
S'grits'
p4203
sI4203
S'max'
p4204
sI4204
S'50%'
p4205
sI4205
S'weeknight'
p4206
sI4206
S'cause'
p4207
sI4207
S'sleek'
p4208
sI4208
S'red'
p4209
sI4209
S'$15'
p4210
sI4210
S"jimmy's"
p4211
sI4211
S'harold'
p4212
sI4212
S'amy'
p4213
sI4213
S'wines'
p4214
sI4214
S'southern'
p4215
sI4215
S'batali'
p4216
sI4216
S'promptly'
p4217
sI4217
S'attending'
p4218
sI4218
S'completely'
p4219
sI4219
S'surely'
p4220
sI4220
S'york'
p4221
sI4221
S'vieja'
p4222
sI4222
S'latest'
p4223
sI4223
S'ridge'
p4224
sI4224
S'bothered'
p4225
sI4225
S'craving'
p4226
sI4226
S'dominican'
p4227
sI4227
S'\xc2\xa0once'
p4228
sI4228
S'organic'
p4229
sI4229
S'prepare'
p4230
sI4230
S'g'
p4231
sI4231
S'could'
p4232
sI4232
S'rushed'
p4233
sI4233
S'florida'
p4234
sI4234
S'good-'
p4235
sI4235
S'times'
p4236
sI4236
S'things:'
p4237
sI4237
S'conversation'
p4238
sI4238
S'4th'
p4239
sI4239
S'pudding'
p4240
sI4240
S'yak'
p4241
sI4241
S'assumed'
p4242
sI4242
S'hence'
p4243
sI4243
S'mixture'
p4244
sI4244
S'mein'
p4245
sI4245
S'margaritas'
p4246
sI4246
S'austin'
p4247
sI4247
S'museum'
p4248
sI4248
S'south'
p4249
sI4249
S'\xc2\xa0no'
p4250
sI4250
S'bushwick'
p4251
sI4251
S'finest'
p4252
sI4252
S'challenge'
p4253
sI4253
S'blown'
p4254
sI4254
S"father's"
p4255
sI4255
S'scene'
p4256
sI4256
S'owned'
p4257
sI4257
S'jesus'
p4258
sI4258
S'walter'
p4259
sI4259
S'warning:'
p4260
sI4260
S'place;'
p4261
sI4261
S'owner'
p4262
sI4262
S'reached'
p4263
sI4263
S'blows'
p4264
sI4264
S'kidding'
p4265
sI4265
S'quality'
p4266
sI4266
S'cabbage'
p4267
sI4267
S"doesn't"
p4268
sI4268
S'management'
p4269
sI4269
S'sadly'
p4270
sI4270
S'los'
p4271
sI4271
S'ordering'
p4272
sI4272
S'---'
p4273
sI4273
S'pots'
p4274
sI4274
S'system'
p4275
sI4275
S'establishments'
p4276
sI4276
S'their'
p4277
sI4277
S'attack'
p4278
sI4278
S'allows'
p4279
sI4279
S'decorations'
p4280
sI4280
S'touristy'
p4281
sI4281
S'wrapped'
p4282
sI4282
S'drool'
p4283
sI4283
S'perfectly'
p4284
sI4284
S'tourists'
p4285
sI4285
S'boil'
p4286
sI4286
S'2-3'
p4287
sI4287
S'shell'
p4288
sI4288
S'stomach'
p4289
sI4289
S'lot'
p4290
sI4290
S'mojitos'
p4291
sI4291
S'exactly'
p4292
sI4292
S'lists'
p4293
sI4293
S'slider'
p4294
sI4294
S'natural'
p4295
sI4295
S'july'
p4296
sI4296
S'overwhelming'
p4297
sI4297
S'elite'
p4298
sI4298
S'institution'
p4299
sI4299
S'hk'
p4300
sI4300
S'varieties'
p4301
sI4301
S'loved'
p4302
sI4302
S'colleagues'
p4303
sI4303
S'yrs'
p4304
sI4304
S'boring'
p4305
sI4305
S'bother'
p4306
sI4306
S'restuarant'
p4307
sI4307
S'westville'
p4308
sI4308
S'scarpetta'
p4309
sI4309
S'cucumbers'
p4310
sI4310
S'appealing'
p4311
sI4311
S'num'
p4312
sI4312
S'moto'
p4313
sI4313
S'cravings'
p4314
sI4314
S'loves'
p4315
sI4315
S'6th'
p4316
sI4316
S'neapolitan'
p4317
sI4317
S'visited'
p4318
sI4318
S'steep'
p4319
sI4319
S'sq'
p4320
sI4320
S'bet'
p4321
sI4321
S'result'
p4322
sI4322
S'\xc2\xa0each'
p4323
sI4323
S'avoided'
p4324
sI4324
S'2014'
p4325
sI4325
S'lightly'
p4326
sI4326
S'journey'
p4327
sI4327
S'carrots'
p4328
sI4328
S'comfortable'
p4329
sI4329
S'tonight'
p4330
sI4330
S'kimchee'
p4331
sI4331
S'comfortably'
p4332
sI4332
S'halal'
p4333
sI4333
S'have'
p4334
sI4334
S'need'
p4335
sI4335
S'dosas'
p4336
sI4336
S'apparently'
p4337
sI4337
S'clearly'
p4338
sI4338
S'\xc2\xa0nice'
p4339
sI4339
S'afraid'
p4340
sI4340
S'portioned'
p4341
sI4341
S'chatting'
p4342
sI4342
S'dishes'
p4343
sI4343
S'min'
p4344
sI4344
S'allergies'
p4345
sI4345
S'forgotten'
p4346
sI4346
S'no-frills'
p4347
sI4347
S'able'
p4348
sI4348
S'mid'
p4349
sI4349
S'hangover'
p4350
sI4350
S'waffles'
p4351
sI4351
S'mix'
p4352
sI4352
S'which'
p4353
sI4353
S'\xc2\xa0then'
p4354
sI4354
S'truck'
p4355
sI4355
S'korean'
p4356
sI4356
S'='
p4357
sI4357
S'coke'
p4358
sI4358
S'churrasco'
p4359
sI4359
S'unless'
p4360
sI4360
S'pretzels'
p4361
sI4361
S'hankering'
p4362
sI4362
S'pitcher'
p4363
sI4363
S'who'
p4364
sI4364
S'mimosa'
p4365
sI4365
S'eight'
p4366
sI4366
S'**'
p4367
sI4367
S'tall'
p4368
sI4368
S"joe's"
p4369
sI4369
S'future'
p4370
sI4370
S'why'
p4371
sI4371
S"husband's"
p4372
sI4372
S'2011'
p4373
sI4373
S"\xc2\xa0didn't"
p4374
sI4374
S'refreshing'
p4375
sI4375
S'\xc2\xa0delicious'
p4376
sI4376
S'reminds'
p4377
sI4377
S'hostesses'
p4378
sI4378
S'enthusiastic'
p4379
sI4379
S'request'
p4380
sI4380
S'thanksgiving'
p4381
sI4381
S'pastor'
p4382
sI4382
S'face'
p4383
sI4383
S'looked'
p4384
sI4384
S'sorta'
p4385
sI4385
S"you'll"
p4386
sI4386
S'hi'
p4387
sI4387
S'yum'
p4388
sI4388
S'movie'
p4389
sI4389
S'brew'
p4390
sI4390
S'occasion'
p4391
sI4391
S'skinny'
p4392
sI4392
S'normally'
p4393
sI4393
S'fact'
p4394
sI4394
S'impression'
p4395
sI4395
S'atmosphere'
p4396
sI4396
S'selection'
p4397
sI4397
S'chances'
p4398
sI4398
S'\xc2\xa0every'
p4399
sI4399
S'agreed'
p4400
sI4400
S'ippudo'
p4401
sI4401
S'doughy'
p4402
sI4402
S'anyway'
p4403
sI4403
S'rotating'
p4404
sI4404
S'bring'
p4405
sI4405
S'planning'
p4406
sI4406
S'florentine'
p4407
sI4407
S'seaweed'
p4408
sI4408
S'drooling'
p4409
sI4409
S'chicken'
p4410
sI4410
S'dried'
p4411
sI4411
S'zagat'
p4412
sI4412
S'pleased'
p4413
sI4413
S'decade'
p4414
sI4414
S'staff'
p4415
sI4415
S'bed-stuy'
p4416
sI4416
S'o'
p4417
sI4417
S'wear'
p4418
sI4418
S'5pm'
p4419
sI4419
S'based'
p4420
sI4420
S'knowledge'
p4421
sI4421
S'seaport'
p4422
sI4422
S'earned'
p4423
sI4423
S'\xc2\xa0prices'
p4424
sI4424
S'('
p4425
sI4425
S'winner'
p4426
sI4426
S'luluc'
p4427
sI4427
S'should'
p4428
sI4428
S'jam'
p4429
sI4429
S'combo'
p4430
sI4430
S'employee'
p4431
sI4431
S'\xc2\xa0loved'
p4432
sI4432
S'bourbon'
p4433
sI4433
S'local'
p4434
sI4434
S'hope'
p4435
sI4435
S'\xc2\xa0like'
p4436
sI4436
S'meant'
p4437
sI4437
S'croquettes'
p4438
sI4438
S'handle'
p4439
sI4439
S'watching'
p4440
sI4440
S'beat'
p4441
sI4441
S'midnight'
p4442
sI4442
S'dope'
p4443
sI4443
S'unbeatable'
p4444
sI4444
S'overall'
p4445
sI4445
S'lucky'
p4446
sI4446
S'bear'
p4447
sI4447
S'likely'
p4448
sI4448
S'joint'
p4449
sI4449
S'bean'
p4450
sI4450
S'ones'
p4451
sI4451
S'foremost'
p4452
sI4452
S'perfection'
p4453
sI4453
S'words'
p4454
sI4454
S'timing'
p4455
sI4455
S'wise'
p4456
sI4456
S'kong'
p4457
sI4457
S'chips'
p4458
sI4458
S'orlin'
p4459
sI4459
S'crabs'
p4460
sI4460
S'trucks'
p4461
sI4461
S'ended'
p4462
sI4462
S'h'
p4463
sI4463
S'gras'
p4464
sI4464
S'calling'
p4465
sI4465
S'default'
p4466
sI4466
S'stuff'
p4467
sI4467
S'she'
p4468
sI4468
S'dangerous'
p4469
sI4469
S'tasteful'
p4470
sI4470
S"won't"
p4471
sI4471
S'grab'
p4472
sI4472
S'fixed'
p4473
sI4473
S'11am'
p4474
sI4474
S'looks'
p4475
sI4475
S'spotted'
p4476
sI4476
S'knowing'
p4477
sI4477
S'btw'
p4478
sI4478
S'inventive'
p4479
sI4479
S'exists'
p4480
sI4480
S'wowed'
p4481
sI4481
S'\xc2\xa0who'
p4482
sI4482
S'bucket'
p4483
sI4483
S'6:30pm'
p4484
sI4484
S'lazy'
p4485
sI4485
S'join'
p4486
sI4486
S"cheryl's"
p4487
sI4487
S'boroughs'
p4488
sI4488
S'teas'
p4489
sI4489
S'austrian'
p4490
sI4490
S'atlantic'
p4491
sI4491
S'terms'
p4492
sI4492
S'kimchi'
p4493
sI4493
S'packed'
p4494
sI4494
S'\xc2\xa0staff'
p4495
sI4495
S'closer'
p4496
sI4496
S'\xc2\xa0or'
p4497
sI4497
S'nolita'
p4498
sI4498
S'cubano'
p4499
sI4499
S'genius'
p4500
sI4500
S'meatballs'
p4501
sI4501
S'kyclades'
p4502
sI4502
S'superb'
p4503
sI4503
S'initially'
p4504
sI4504
S'written'
p4505
sI4505
S'kefi'
p4506
sI4506
S'\xc2\xa0of'
p4507
sI4507
S'closed'
p4508
sI4508
S'horrible'
p4509
sI4509
S'\xc2\xa0ok'
p4510
sI4510
S'stories'
p4511
sI4511
S'neither'
p4512
sI4512
S'joya'
p4513
sI4513
S'\xc2\xa0on'
p4514
sI4514
S'bought'
p4515
sI4515
S'ends'
p4516
sI4516
S'handful'
p4517
sI4517
S'cauliflower'
p4518
sI4518
S'opening'
p4519
sI4519
S'weak'
p4520
sI4520
S"grandma's"
p4521
sI4521
S'beverages'
p4522
sI4522
S'deliver'
p4523
sI4523
S'\xc2\xa0the'
p4524
sI4524
S'job'
p4525
sI4525
S'joe'
p4526
sI4526
S'key'
p4527
sI4527
S'mooncake'
p4528
sI4528
S'rooftop'
p4529
sI4529
S'2pm'
p4530
sI4530
S"pizza's"
p4531
sI4531
S'legit'
p4532
sI4532
S'david'
p4533
sI4533
S'hits'
p4534
sI4534
S'figured'
p4535
sI4535
S'instant'
p4536
sI4536
S'joke'
p4537
sI4537
S'taking'
p4538
sI4538
S'sripraphai'
p4539
sI4539
S'soondubu'
p4540
sI4540
S'yelped'
p4541
sI4541
S'etc'
p4542
sI4542
S'admit'
p4543
sI4543
S'tater'
p4544
sI4544
S'grain'
p4545
sI4545
S'hillstone'
p4546
sI4546
S'inspired'
p4547
sI4547
S'passing'
p4548
sI4548
S'kinds'
p4549
sI4549
S'jersey'
p4550
sI4550
S'otherwise'
p4551
sI4551
S'comment'
p4552
sI4552
S'torn'
p4553
sI4553
S'co'
p4554
sI4554
S'wall'
p4555
sI4555
S'tuesday'
p4556
sI4556
S'\xc2\xa0because'
p4557
sI4557
S'supreme'
p4558
sI4558
S'walk'
p4559
sI4559
S'arugula'
p4560
sI4560
S'\xc2\xa0how'
p4561
sI4561
S'flair'
p4562
sI4562
S'adding'
p4563
sI4563
S'crafted'
p4564
sI4564
S'news'
p4565
sI4565
S'table'
p4566
sI4566
S'walnut'
p4567
sI4567
S'gumbo'
p4568
sI4568
S'pouring'
p4569
sI4569
S'yay'
p4570
sI4570
S'fillings'
p4571
sI4571
S'addition'
p4572
sI4572
S'decent'
p4573
sI4573
S'balsamic'
p4574
sI4574
S'tikka'
p4575
sI4575
S'ai'
p4576
sI4576
S'drank'
p4577
sI4577
S'seasoned'
p4578
sI4578
S'treat'
p4579
sI4579
S'themed'
p4580
sI4580
S'tv'
p4581
sI4581
S'rabe'
p4582
sI4582
S'kitchen'
p4583
sI4583
S'bbq'
p4584
sI4584
S'spacious'
p4585
sI4585
S'puerto'
p4586
sI4586
S'general'
p4587
sI4587
S'mouthwatering'
p4588
sI4588
S'dente'
p4589
sI4589
S'moved'
p4590
sI4590
S'informative'
p4591
sI4591
S'crappy'
p4592
sI4592
S'redhead'
p4593
sI4593
S'finished'
p4594
sI4594
S'sausages'
p4595
sI4595
S'covered'
p4596
sI4596
S'improved'
p4597
sI4597
S'brunch'
p4598
sI4598
S'fellow'
p4599
sI4599
S'spain'
p4600
sI4600
S'lebanese'
p4601
sI4601
S'wins'
p4602
sI4602
S'welcoming'
p4603
sI4603
S'license'
p4604
sI4604
S'unlike'
p4605
sI4605
S'plain'
p4606
sI4606
S'vanilla'
p4607
sI4607
S'tribeca'
p4608
sI4608
S'\xc2\xa0had'
p4609
sI4609
S'inn'
p4610
sI4610
S'value'
p4611
sI4611
S'choices'
p4612
sI4612
S'will'
p4613
sI4613
S'brunches'
p4614
sI4614
S'stunning'
p4615
sI4615
S'lead'
p4616
sI4616
S'fault'
p4617
sI4617
S'wild'
p4618
sI4618
S'au'
p4619
sI4619
S'instantly'
p4620
sI4620
S'\xc2\xa0went'
p4621
sI4621
S'maharlika'
p4622
sI4622
S'almost'
p4623
sI4623
S'fonda'
p4624
sI4624
S'blood'
p4625
sI4625
S'squid'
p4626
sI4626
S'thus'
p4627
sI4627
S'surprisingly'
p4628
sI4628
S'alive'
p4629
sI4629
S'\xc2\xa0maybe'
p4630
sI4630
S'helped'
p4631
sI4631
S'vs'
p4632
sI4632
S'\xc2\xa0love'
p4633
sI4633
S'ave'
p4634
sI4634
S'sits'
p4635
sI4635
S'\xc2\xa0can'
p4636
sI4636
S'perhaps'
p4637
sI4637
S'vintage'
p4638
sI4638
S'began'
p4639
sI4639
S'views'
p4640
sI4640
S'waitresses'
p4641
sI4641
S'cross'
p4642
sI4642
S'underwhelmed'
p4643
sI4643
S'member'
p4644
sI4644
S'fidi'
p4645
sI4645
S'strange'
p4646
sI4646
S'swift'
p4647
sI4647
S'eclectic'
p4648
sI4648
S'party'
p4649
sI4649
S'gets'
p4650
sI4650
S'tomatoes'
p4651
sI4651
S'difficult'
p4652
sI4652
S'succulent'
p4653
sI4653
S'ball'
p4654
sI4654
S'pho'
p4655
sI4655
S'slightly'
p4656
sI4656
S'pros:'
p4657
sI4657
S'drink'
p4658
sI4658
S'upon'
p4659
sI4659
S'overcrowded'
p4660
sI4660
S"\xc2\xa0there's"
p4661
sI4661
S'student'
p4662
sI4662
S'uni'
p4663
sI4663
S'sisters'
p4664
sI4664
S'frequently'
p4665
sI4665
S'impeccable'
p4666
sI4666
S'broccoli'
p4667
sI4667
S'pleasantly'
p4668
sI4668
S'argue'
p4669
sI4669
S'off'
p4670
sI4670
S'center'
p4671
sI4671
S'fully'
p4672
sI4672
S'\xc2\xa0so'
p4673
sI4673
S'com'
p4674
sI4674
S'antipasto'
p4675
sI4675
S'variety'
p4676
sI4676
S'well'
p4677
sI4677
S'rack'
p4678
sI4678
S'thought'
p4679
sI4679
S'sheer'
p4680
sI4680
S'english'
p4681
sI4681
S'firstly'
p4682
sI4682
S'momo'
p4683
sI4683
S'raving'
p4684
sI4684
S'iphone'
p4685
sI4685
S'caramelized'
p4686
sI4686
S'usual'
p4687
sI4687
S'dynasty'
p4688
sI4688
S'laid-back'
p4689
sI4689
S'newest'
p4690
sI4690
S'bananas'
p4691
sI4691
S'sourced'
p4692
sI4692
S'less'
p4693
sI4693
S'proximity'
p4694
sI4694
S'dosa'
p4695
sI4695
S'cakes'
p4696
sI4696
S'detail'
p4697
sI4697
S'arriving'
p4698
sI4698
S'rooms'
p4699
sI4699
S'rocked'
p4700
sI4700
S'seats'
p4701
sI4701
S'lettuce'
p4702
sI4702
S'topping'
p4703
sI4703
S'web'
p4704
sI4704
S'generous'
p4705
sI4705
S'breaking'
p4706
sI4706
S'wee'
p4707
sI4707
S'wed'
p4708
sI4708
S'gastropub'
p4709
sI4709
S'residential'
p4710
sI4710
S'point'
p4711
sI4711
S'smith'
p4712
sI4712
S'wash'
p4713
sI4713
S'recommending'
p4714
sI4714
S'realize'
p4715
sI4715
S'\xc2\xa0seriously'
p4716
sI4716
S'reasons'
p4717
sI4717
S'add'
p4718
sI4718
S'book'
p4719
sI4719
S'raved'
p4720
sI4720
S'crack'
p4721
sI4721
S'hurry'
p4722
sI4722
S'smart'
p4723
sI4723
S'teriyaki'
p4724
sI4724
S'kick'
p4725
sI4725
S'\xc2\xa0nothing'
p4726
sI4726
S'branch'
p4727
sI4727
S'ample'
p4728
sI4728
S'habana'
p4729
sI4729
S'checking'
p4730
sI4730
S"who's"
p4731
sI4731
S'thicker'
p4732
sI4732
S'february'
p4733
sI4733
S'palo'
p4734
sI4734
S'cobble'
p4735
sI4735
S'malatesta'
p4736
sI4736
S'historic'
p4737
sI4737
S'five'
p4738
sI4738
S'know'
p4739
sI4739
S"boyfriend's"
p4740
sI4740
S'belgium'
p4741
sI4741
S'immediately'
p4742
sI4742
S'pier'
p4743
sI4743
S'pies'
p4744
sI4744
S'tagliatelle'
p4745
sI4745
S'crisp'
p4746
sI4746
S'helpful'
p4747
sI4747
S'onion'
p4748
sI4748
S'sizes'
p4749
sI4749
S'chairs'
p4750
sI4750
S'vibrant'
p4751
sI4751
S'11pm'
p4752
sI4752
S'candy'
p4753
sI4753
S'roti'
p4754
sI4754
S'garage'
p4755
sI4755
S'arepa'
p4756
sI4756
S'bravas'
p4757
sI4757
S'hosts'
p4758
sI4758
S"luke's"
p4759
sI4759
S'fianc\xc3\xa9'
p4760
sI4760
S'lose'
p4761
sI4761
S'become'
p4762
sI4762
S'works'
p4763
sI4763
S'soft'
p4764
sI4764
S'famed'
p4765
sI4765
S'regardless'
p4766
sI4766
S'italian'
p4767
sI4767
S'accessible'
p4768
sI4768
S'because'
p4769
sI4769
S'shabby'
p4770
sI4770
S'reluctant'
p4771
sI4771
S'cider'
p4772
sI4772
S'scared'
p4773
sI4773
S'church'
p4774
sI4774
S"juliana's"
p4775
sI4775
S'searching'
p4776
sI4776
S'library'
p4777
sI4777
S'watered'
p4778
sI4778
S'hair'
p4779
sI4779
S'highlights:'
p4780
sI4780
S'repeat'
p4781
sI4781
S'ilili'
p4782
sI4782
S'choosing'
p4783
sI4783
S'recommendation'
p4784
sI4784
S'proper'
p4785
sI4785
S'home'
p4786
sI4786
S'died'
p4787
sI4787
S'meatloaf'
p4788
sI4788
S'stuffy'
p4789
sI4789
S'happens'
p4790
sI4790
S'"what'
p4791
sI4791
S'hipsters'
p4792
sI4792
S'zhou'
p4793
sI4793
S'jalapeno'
p4794
sI4794
S'esp'
p4795
sI4795
S'steaming'
p4796
sI4796
S'literally'
p4797
sI4797
S'avoid'
p4798
sI4798
S'branzino'
p4799
sI4799
S'hurricane'
p4800
sI4800
S'd\xc3\xa9cor'
p4801
sI4801
S'14th'
p4802
sI4802
S'totto'
p4803
sI4803
S'bang'
p4804
sI4804
S'bustling'
p4805
sI4805
S'assuming'
p4806
sI4806
S'truffle'
p4807
sI4807
S'joju'
p4808
sI4808
S'speak'
p4809
sI4809
S'forgettable'
p4810
sI4810
S'?'
p4811
sI4811
S'trout'
p4812
sI4812
S'pepper'
p4813
sI4813
S'noise'
p4814
sI4814
S'truth'
p4815
sI4815
S'slight'
p4816
sI4816
S'bareburger'
p4817
sI4817
S'snapper'
p4818
sI4818
S'peas'
p4819
sI4819
S'stellar'
p4820
sI4820
S'host'
p4821
sI4821
S'converted'
p4822
sI4822
S'although'
p4823
sI4823
S'worthy'
p4824
sI4824
S'pasta'
p4825
sI4825
S'generic'
p4826
sI4826
S'riverpark'
p4827
sI4827
S'paste'
p4828
sI4828
S'breadsticks'
p4829
sI4829
S'noisy'
p4830
sI4830
S'sister'
p4831
sI4831
S'rare'
p4832
sI4832
S'puts'
p4833
sI4833
S'getting'
p4834
sI4834
S'high-end'
p4835
sI4835
S'"best'
p4836
sI4836
S'biscuit'
p4837
sI4837
S'"you'
p4838
sI4838
S'gorgonzola'
p4839
sI4839
S'scott'
p4840
sI4840
S'madame'
p4841
sI4841
S'angeles'
p4842
sI4842
S'fear'
p4843
sI4843
S'swear'
p4844
sI4844
S'toppings'
p4845
sI4845
S'crusted'
p4846
sI4846
S'tongue'
p4847
sI4847
S'introduced'
p4848
sI4848
S'pastries'
p4849
sI4849
S'owl'
p4850
sI4850
S'equally'
p4851
sI4851
S'own'
p4852
sI4852
S'keeps'
p4853
sI4853
S'previously'
p4854
sI4854
S'washington'
p4855
sI4855
S'\xc2\xa0by'
p4856
sI4856
S'socks'
p4857
sI4857
S'mushrooms'
p4858
sI4858
S'classics'
p4859
sI4859
S'weather'
p4860
sI4860
S'promise'
p4861
sI4861
S'tiny'
p4862
sI4862
S'female'
p4863
sI4863
S'luck'
p4864
sI4864
S'couldnt'
p4865
sI4865
S'quickly'
p4866
sI4866
S'stumptown'
p4867
sI4867
S'flaky'
p4868
sI4868
S'fired'
p4869
sI4869
S'clue'
p4870
sI4870
S'foie'
p4871
sI4871
S'yorkers'
p4872
sI4872
S'additional'
p4873
sI4873
S'buttermilk'
p4874
sI4874
S'vegetables'
p4875
sI4875
S'*'
p4876
sI4876
S'apps'
p4877
sI4877
S'spots'
p4878
sI4878
S'noticed'
p4879
sI4879
S'ootoya'
p4880
sI4880
S'abeille'
p4881
sI4881
S'biggest'
p4882
sI4882
S'venezuelan'
p4883
sI4883
S'naturally'
p4884
sI4884
S'buy'
p4885
sI4885
S'north'
p4886
sI4886
S'gluten'
p4887
sI4887
S'shank'
p4888
sI4888
S"i've"
p4889
sI4889
S'hr'
p4890
sI4890
S'bus'
p4891
sI4891
S'brand'
p4892
sI4892
S'scoutmob'
p4893
sI4893
S'carbs'
p4894
sI4894
S'but'
p4895
sI4895
S'hated'
p4896
sI4896
S'delivery'
p4897
sI4897
S'basil'
p4898
sI4898
S'hh'
p4899
sI4899
S'strawberries'
p4900
sI4900
S'bun'
p4901
sI4901
S"\xc2\xa0we've"
p4902
sI4902
S'\xc2\xa0best'
p4903
sI4903
S'delivers'
p4904
sI4904
S'squeeze'
p4905
sI4905
S'eat'
p4906
sI4906
S'\xc2\xa0they'
p4907
sI4907
S'he'
p4908
sI4908
S'count'
p4909
sI4909
S"bubby's"
p4910
sI4910
S'made'
p4911
sI4911
S'\xc2\xa0'
p4912
sI4912
S'snagged'
p4913
sI4913
S'places'
p4914
sI4914
S'whether'
p4915
sI4915
S'wish'
p4916
sI4916
S'woorijip'
p4917
sI4917
S'smooth'
p4918
sI4918
S'po'
p4919
sI4919
S'byob'
p4920
sI4920
S'placed'
p4921
sI4921
S'below'
p4922
sI4922
S'mushy'
p4923
sI4923
S'carpaccio'
p4924
sI4924
S'woke'
p4925
sI4925
S'hand'
p4926
sI4926
S'cake'
p4927
sI4927
S'problem'
p4928
sI4928
S'piece'
p4929
sI4929
S'minutes'
p4930
sI4930
S'display'
p4931
sI4931
S'chip'
p4932
sI4932
S"fara's"
p4933
sI4933
S'irish'
p4934
sI4934
S'3-4'
p4935
sI4935
S"lillie's"
p4936
sI4936
S'pio'
p4937
sI4937
S'reservations'
p4938
sI4938
S'penny'
p4939
sI4939
S'pie'
p4940
sI4940
S'pig'
p4941
sI4941
S'twist'
p4942
sI4942
S'beats'
p4943
sI4943
S'$30'
p4944
sI4944
S'goodness'
p4945
sI4945
S'ink'
p4946
sI4946
S'time:'
p4947
sI4947
S'mash'
p4948
sI4948
S'pernil'
p4949
sI4949
S'happen'
p4950
sI4950
S'worse'
p4951
sI4951
S'trecolori'
p4952
sI4952
S'diego'
p4953
sI4953
S'compared'
p4954
sI4954
S'relaxing'
p4955
sI4955
S'ingredients'
p4956
sI4956
S'dressed'
p4957
sI4957
S'45'
p4958
sI4958
S'boot'
p4959
sI4959
S'\xc2\xa0their'
p4960
sI4960
S'40'
p4961
sI4961
S'lately'
p4962
sI4962
S'deserved'
p4963
sI4963
S'other'
p4964
sI4964
S'compares'
p4965
sI4965
S'details'
p4966
sI4966
S'sick'
p4967
sI4967
S'incredibly'
p4968
sI4968
S'booze'
p4969
sI4969
S'francisco'
p4970
sI4970
S'star'
p4971
sI4971
S'monday'
p4972
sI4972
S'shredded'
p4973
sI4973
S'grandmother'
p4974
sI4974
S'june'
p4975
sI4975
S'stay'
p4976
sI4976
S'15-20'
p4977
sI4977
S'chance'
p4978
sI4978
S'sandwhich'
p4979
sI4979
S'kinda'
p4980
sI4980
S'nicest'
p4981
sI4981
S'priced'
p4982
sI4982
S'friends'
p4983
sI4983
S'coat'
p4984
sI4984
S'lukewarm'
p4985
sI4985
S'yelp'
p4986
sI4986
S'gelato'
p4987
sI4987
S'jewel'
p4988
sI4988
S'fung'
p4989
sI4989
S'rule'
p4990
sI4990
S'\xc2\xa0probably'
p4991
sI4991
S'portion'
p4992
sI4992
S'\xc2\xa0fresh'
p4993
sI4993
S'searched'
p4994
sI4994
S'degustation'
p4995
sI4995
S'understand'
p4996
sI4996
S'"the'
p4997
sI4997
S'baked'
p4998
sI4998
S'gardens'
p4999
sI4999
S'8th'
p5000
sI5000
S'<UNK>'
p5001
s.